
3-test-die-unmapped-write.elf:     file format elf32-littlearm


Disassembly of section .text:

00008000 <__code_start__>:
    8000:	e3a00013 	mov	r0, #19, 0
    8004:	e3800080 	orr	r0, r0, #128, 0	; 0x80
    8008:	e129f000 	msr	CPSR_fc, r0
    800c:	e3a01000 	mov	r1, #0, 0
    8010:	ee071f95 	mcr	15, 0, r1, cr7, cr5, {4}
    8014:	e3a0d302 	mov	sp, #134217728	; 0x8000000
    8018:	e3a0b000 	mov	fp, #0, 0
    801c:	eb000a41 	bl	a928 <_cstart>
    8020:	eb000ac4 	bl	ab38 <rpi_reboot>

00008024 <PUT32>:
    8024:	e5801000 	str	r1, [r0]
    8028:	e12fff1e 	bx	lr

0000802c <GET32>:
    802c:	e5900000 	ldr	r0, [r0]
    8030:	e12fff1e 	bx	lr

00008034 <BRANCHTO>:
    8034:	e12fff10 	bx	r0

00008038 <vm_test>:
    8038:	e92d4010 	push	{r4, lr}
    803c:	e24dd008 	sub	sp, sp, #8, 0
    8040:	e59f4074 	ldr	r4, [pc, #116]	; 80bc <vm_test+0x84>
    8044:	e3a0367f 	mov	r3, #133169152	; 0x7f00000
    8048:	e5843004 	str	r3, [r4, #4]
    804c:	e3a00001 	mov	r0, #1, 0
    8050:	e584000c 	str	r0, [r4, #12]
    8054:	eb00042c 	bl	910c <vm_ident_mmu_init>
    8058:	e5840000 	str	r0, [r4]
    805c:	eb000254 	bl	89b4 <mmu_is_enabled>
    8060:	e3500000 	cmp	r0, #0, 0
    8064:	1a000007 	bne	8088 <vm_test+0x50>
    8068:	e59f3050 	ldr	r3, [pc, #80]	; 80c0 <vm_test+0x88>
    806c:	e58d3000 	str	r3, [sp]
    8070:	e3a03009 	mov	r3, #9, 0
    8074:	e59f2048 	ldr	r2, [pc, #72]	; 80c4 <vm_test+0x8c>
    8078:	e59f1048 	ldr	r1, [pc, #72]	; 80c8 <vm_test+0x90>
    807c:	e59f0048 	ldr	r0, [pc, #72]	; 80cc <vm_test+0x94>
    8080:	eb000948 	bl	a5a8 <printk>
    8084:	eb000a1f 	bl	a908 <clean_reboot>
    8088:	e59f0040 	ldr	r0, [pc, #64]	; 80d0 <vm_test+0x98>
    808c:	eb000945 	bl	a5a8 <printk>
    8090:	e3a00521 	mov	r0, #138412032	; 0x8400000
    8094:	e59f3020 	ldr	r3, [pc, #32]	; 80bc <vm_test+0x84>
    8098:	e5830014 	str	r0, [r3, #20]
    809c:	e3a01001 	mov	r1, #1, 0
    80a0:	ebffffdf 	bl	8024 <PUT32>
    80a4:	e3a0300f 	mov	r3, #15, 0
    80a8:	e59f2014 	ldr	r2, [pc, #20]	; 80c4 <vm_test+0x8c>
    80ac:	e59f1014 	ldr	r1, [pc, #20]	; 80c8 <vm_test+0x90>
    80b0:	e59f001c 	ldr	r0, [pc, #28]	; 80d4 <vm_test+0x9c>
    80b4:	eb00093b 	bl	a5a8 <printk>
    80b8:	eb000a12 	bl	a908 <clean_reboot>
    80bc:	0000c678 	.word	0x0000c678
    80c0:	0000b3cc 	.word	0x0000b3cc
    80c4:	0000b46c 	.word	0x0000b46c
    80c8:	0000b380 	.word	0x0000b380
    80cc:	0000b39c 	.word	0x0000b39c
    80d0:	0000b3e0 	.word	0x0000b3e0
    80d4:	0000b414 	.word	0x0000b414

000080d8 <notmain>:
    80d8:	e92d4010 	push	{r4, lr}
    80dc:	eb0000dc 	bl	8454 <mmu_be_quiet>
    80e0:	e3a01601 	mov	r1, #1048576	; 0x100000
    80e4:	e1a00001 	mov	r0, r1
    80e8:	eb000b57 	bl	ae4c <kmalloc_init_set_start>
    80ec:	e59f0008 	ldr	r0, [pc, #8]	; 80fc <notmain+0x24>
    80f0:	eb00092c 	bl	a5a8 <printk>
    80f4:	eb000229 	bl	89a0 <check_vm_structs>
    80f8:	ebffffce 	bl	8038 <vm_test>
    80fc:	0000b43c 	.word	0x0000b43c

00008100 <control_reg1_sanity_check>:
    8100:	e52de004 	push	{lr}		; (str lr, [sp, #-4]!)
    8104:	e24dd00c 	sub	sp, sp, #12, 0
    8108:	e5d02000 	ldrb	r2, [r0]
    810c:	e2023070 	and	r3, r2, #112, 0	; 0x70
    8110:	e3530070 	cmp	r3, #112, 0	; 0x70
    8114:	1a000014 	bne	816c <control_reg1_sanity_check+0x6c>
    8118:	e5d03002 	ldrb	r3, [r0, #2]
    811c:	e3130001 	tst	r3, #1, 0
    8120:	0a000019 	beq	818c <control_reg1_sanity_check+0x8c>
    8124:	e3130004 	tst	r3, #4, 0
    8128:	0a00001f 	beq	81ac <control_reg1_sanity_check+0xac>
    812c:	e3130002 	tst	r3, #2, 0
    8130:	1a000025 	bne	81cc <control_reg1_sanity_check+0xcc>
    8134:	e3130008 	tst	r3, #8, 0
    8138:	1a00002b 	bne	81ec <control_reg1_sanity_check+0xec>
    813c:	e3130010 	tst	r3, #16, 0
    8140:	1a000031 	bne	820c <control_reg1_sanity_check+0x10c>
    8144:	e5d03003 	ldrb	r3, [r0, #3]
    8148:	e3130004 	tst	r3, #4, 0
    814c:	1a000036 	bne	822c <control_reg1_sanity_check+0x12c>
    8150:	e5d03001 	ldrb	r3, [r0, #1]
    8154:	e3130010 	tst	r3, #16, 0
    8158:	1a00003b 	bne	824c <control_reg1_sanity_check+0x14c>
    815c:	e3120004 	tst	r2, #4, 0
    8160:	1a000041 	bne	826c <control_reg1_sanity_check+0x16c>
    8164:	e28dd00c 	add	sp, sp, #12, 0
    8168:	e49df004 	pop	{pc}		; (ldr pc, [sp], #4)
    816c:	e59f3118 	ldr	r3, [pc, #280]	; 828c <control_reg1_sanity_check+0x18c>
    8170:	e58d3000 	str	r3, [sp]
    8174:	e3a0303e 	mov	r3, #62, 0	; 0x3e
    8178:	e59f2110 	ldr	r2, [pc, #272]	; 8290 <control_reg1_sanity_check+0x190>
    817c:	e59f1110 	ldr	r1, [pc, #272]	; 8294 <control_reg1_sanity_check+0x194>
    8180:	e59f0110 	ldr	r0, [pc, #272]	; 8298 <control_reg1_sanity_check+0x198>
    8184:	eb000907 	bl	a5a8 <printk>
    8188:	eb0009de 	bl	a908 <clean_reboot>
    818c:	e59f3108 	ldr	r3, [pc, #264]	; 829c <control_reg1_sanity_check+0x19c>
    8190:	e58d3000 	str	r3, [sp]
    8194:	e3a0303f 	mov	r3, #63, 0	; 0x3f
    8198:	e59f20f0 	ldr	r2, [pc, #240]	; 8290 <control_reg1_sanity_check+0x190>
    819c:	e59f10f0 	ldr	r1, [pc, #240]	; 8294 <control_reg1_sanity_check+0x194>
    81a0:	e59f00f0 	ldr	r0, [pc, #240]	; 8298 <control_reg1_sanity_check+0x198>
    81a4:	eb0008ff 	bl	a5a8 <printk>
    81a8:	eb0009d6 	bl	a908 <clean_reboot>
    81ac:	e59f30ec 	ldr	r3, [pc, #236]	; 82a0 <control_reg1_sanity_check+0x1a0>
    81b0:	e58d3000 	str	r3, [sp]
    81b4:	e3a03040 	mov	r3, #64, 0	; 0x40
    81b8:	e59f20d0 	ldr	r2, [pc, #208]	; 8290 <control_reg1_sanity_check+0x190>
    81bc:	e59f10d0 	ldr	r1, [pc, #208]	; 8294 <control_reg1_sanity_check+0x194>
    81c0:	e59f00d0 	ldr	r0, [pc, #208]	; 8298 <control_reg1_sanity_check+0x198>
    81c4:	eb0008f7 	bl	a5a8 <printk>
    81c8:	eb0009ce 	bl	a908 <clean_reboot>
    81cc:	e59f30d0 	ldr	r3, [pc, #208]	; 82a4 <control_reg1_sanity_check+0x1a4>
    81d0:	e58d3000 	str	r3, [sp]
    81d4:	e3a03043 	mov	r3, #67, 0	; 0x43
    81d8:	e59f20b0 	ldr	r2, [pc, #176]	; 8290 <control_reg1_sanity_check+0x190>
    81dc:	e59f10b0 	ldr	r1, [pc, #176]	; 8294 <control_reg1_sanity_check+0x194>
    81e0:	e59f00b0 	ldr	r0, [pc, #176]	; 8298 <control_reg1_sanity_check+0x198>
    81e4:	eb0008ef 	bl	a5a8 <printk>
    81e8:	eb0009c6 	bl	a908 <clean_reboot>
    81ec:	e59f30b4 	ldr	r3, [pc, #180]	; 82a8 <control_reg1_sanity_check+0x1a8>
    81f0:	e58d3000 	str	r3, [sp]
    81f4:	e3a03044 	mov	r3, #68, 0	; 0x44
    81f8:	e59f2090 	ldr	r2, [pc, #144]	; 8290 <control_reg1_sanity_check+0x190>
    81fc:	e59f1090 	ldr	r1, [pc, #144]	; 8294 <control_reg1_sanity_check+0x194>
    8200:	e59f0090 	ldr	r0, [pc, #144]	; 8298 <control_reg1_sanity_check+0x198>
    8204:	eb0008e7 	bl	a5a8 <printk>
    8208:	eb0009be 	bl	a908 <clean_reboot>
    820c:	e59f3098 	ldr	r3, [pc, #152]	; 82ac <control_reg1_sanity_check+0x1ac>
    8210:	e58d3000 	str	r3, [sp]
    8214:	e3a03045 	mov	r3, #69, 0	; 0x45
    8218:	e59f2070 	ldr	r2, [pc, #112]	; 8290 <control_reg1_sanity_check+0x190>
    821c:	e59f1070 	ldr	r1, [pc, #112]	; 8294 <control_reg1_sanity_check+0x194>
    8220:	e59f0070 	ldr	r0, [pc, #112]	; 8298 <control_reg1_sanity_check+0x198>
    8224:	eb0008df 	bl	a5a8 <printk>
    8228:	eb0009b6 	bl	a908 <clean_reboot>
    822c:	e59f307c 	ldr	r3, [pc, #124]	; 82b0 <control_reg1_sanity_check+0x1b0>
    8230:	e58d3000 	str	r3, [sp]
    8234:	e3a0304e 	mov	r3, #78, 0	; 0x4e
    8238:	e59f2050 	ldr	r2, [pc, #80]	; 8290 <control_reg1_sanity_check+0x190>
    823c:	e59f1050 	ldr	r1, [pc, #80]	; 8294 <control_reg1_sanity_check+0x194>
    8240:	e59f0050 	ldr	r0, [pc, #80]	; 8298 <control_reg1_sanity_check+0x198>
    8244:	eb0008d7 	bl	a5a8 <printk>
    8248:	eb0009ae 	bl	a908 <clean_reboot>
    824c:	e59f3060 	ldr	r3, [pc, #96]	; 82b4 <control_reg1_sanity_check+0x1b4>
    8250:	e58d3000 	str	r3, [sp]
    8254:	e3a0304f 	mov	r3, #79, 0	; 0x4f
    8258:	e59f2030 	ldr	r2, [pc, #48]	; 8290 <control_reg1_sanity_check+0x190>
    825c:	e59f1030 	ldr	r1, [pc, #48]	; 8294 <control_reg1_sanity_check+0x194>
    8260:	e59f0030 	ldr	r0, [pc, #48]	; 8298 <control_reg1_sanity_check+0x198>
    8264:	eb0008cf 	bl	a5a8 <printk>
    8268:	eb0009a6 	bl	a908 <clean_reboot>
    826c:	e59f3044 	ldr	r3, [pc, #68]	; 82b8 <control_reg1_sanity_check+0x1b8>
    8270:	e58d3000 	str	r3, [sp]
    8274:	e3a03050 	mov	r3, #80, 0	; 0x50
    8278:	e59f2010 	ldr	r2, [pc, #16]	; 8290 <control_reg1_sanity_check+0x190>
    827c:	e59f1010 	ldr	r1, [pc, #16]	; 8294 <control_reg1_sanity_check+0x194>
    8280:	e59f0010 	ldr	r0, [pc, #16]	; 8298 <control_reg1_sanity_check+0x198>
    8284:	eb0008c7 	bl	a5a8 <printk>
    8288:	eb00099e 	bl	a908 <clean_reboot>
    828c:	0000b484 	.word	0x0000b484
    8290:	0000b83c 	.word	0x0000b83c
    8294:	0000b474 	.word	0x0000b474
    8298:	0000b39c 	.word	0x0000b39c
    829c:	0000b49c 	.word	0x0000b49c
    82a0:	0000b4a8 	.word	0x0000b4a8
    82a4:	0000b4b4 	.word	0x0000b4b4
    82a8:	0000b4c4 	.word	0x0000b4c4
    82ac:	0000b4d4 	.word	0x0000b4d4
    82b0:	0000b4e0 	.word	0x0000b4e0
    82b4:	0000b4f0 	.word	0x0000b4f0
    82b8:	0000b504 	.word	0x0000b504

000082bc <fld_check_valid>:
    82bc:	e52de004 	push	{lr}		; (str lr, [sp, #-4]!)
    82c0:	e24dd00c 	sub	sp, sp, #12, 0
    82c4:	e5d03002 	ldrb	r3, [r0, #2]
    82c8:	e3130008 	tst	r3, #8, 0
    82cc:	1a000012 	bne	831c <fld_check_valid+0x60>
    82d0:	e5d02000 	ldrb	r2, [r0]
    82d4:	e2021003 	and	r1, r2, #3, 0
    82d8:	e3510002 	cmp	r1, #2, 0
    82dc:	1a000016 	bne	833c <fld_check_valid+0x80>
    82e0:	e3130001 	tst	r3, #1, 0
    82e4:	1a00001c 	bne	835c <fld_check_valid+0xa0>
    82e8:	e5d01001 	ldrb	r1, [r0, #1]
    82ec:	e3110002 	tst	r1, #2, 0
    82f0:	1a000021 	bne	837c <fld_check_valid+0xc0>
    82f4:	e3110070 	tst	r1, #112, 0	; 0x70
    82f8:	1a000027 	bne	839c <fld_check_valid+0xe0>
    82fc:	e3120008 	tst	r2, #8, 0
    8300:	1a00002d 	bne	83bc <fld_check_valid+0x100>
    8304:	e3120004 	tst	r2, #4, 0
    8308:	1a000033 	bne	83dc <fld_check_valid+0x120>
    830c:	e3130004 	tst	r3, #4, 0
    8310:	1a000039 	bne	83fc <fld_check_valid+0x140>
    8314:	e28dd00c 	add	sp, sp, #12, 0
    8318:	e49df004 	pop	{pc}		; (ldr pc, [sp], #4)
    831c:	e59f30f8 	ldr	r3, [pc, #248]	; 841c <fld_check_valid+0x160>
    8320:	e58d3000 	str	r3, [sp]
    8324:	e3a03080 	mov	r3, #128, 0	; 0x80
    8328:	e59f20f0 	ldr	r2, [pc, #240]	; 8420 <fld_check_valid+0x164>
    832c:	e59f10f0 	ldr	r1, [pc, #240]	; 8424 <fld_check_valid+0x168>
    8330:	e59f00f0 	ldr	r0, [pc, #240]	; 8428 <fld_check_valid+0x16c>
    8334:	eb00089b 	bl	a5a8 <printk>
    8338:	eb000972 	bl	a908 <clean_reboot>
    833c:	e59f30e8 	ldr	r3, [pc, #232]	; 842c <fld_check_valid+0x170>
    8340:	e58d3000 	str	r3, [sp]
    8344:	e3a03081 	mov	r3, #129, 0	; 0x81
    8348:	e59f20d0 	ldr	r2, [pc, #208]	; 8420 <fld_check_valid+0x164>
    834c:	e59f10d0 	ldr	r1, [pc, #208]	; 8424 <fld_check_valid+0x168>
    8350:	e59f00d0 	ldr	r0, [pc, #208]	; 8428 <fld_check_valid+0x16c>
    8354:	eb000893 	bl	a5a8 <printk>
    8358:	eb00096a 	bl	a908 <clean_reboot>
    835c:	e59f30cc 	ldr	r3, [pc, #204]	; 8430 <fld_check_valid+0x174>
    8360:	e58d3000 	str	r3, [sp]
    8364:	e3a03082 	mov	r3, #130, 0	; 0x82
    8368:	e59f20b0 	ldr	r2, [pc, #176]	; 8420 <fld_check_valid+0x164>
    836c:	e59f10b0 	ldr	r1, [pc, #176]	; 8424 <fld_check_valid+0x168>
    8370:	e59f00b0 	ldr	r0, [pc, #176]	; 8428 <fld_check_valid+0x16c>
    8374:	eb00088b 	bl	a5a8 <printk>
    8378:	eb000962 	bl	a908 <clean_reboot>
    837c:	e59f30b0 	ldr	r3, [pc, #176]	; 8434 <fld_check_valid+0x178>
    8380:	e58d3000 	str	r3, [sp]
    8384:	e3a03083 	mov	r3, #131, 0	; 0x83
    8388:	e59f2090 	ldr	r2, [pc, #144]	; 8420 <fld_check_valid+0x164>
    838c:	e59f1090 	ldr	r1, [pc, #144]	; 8424 <fld_check_valid+0x168>
    8390:	e59f0090 	ldr	r0, [pc, #144]	; 8428 <fld_check_valid+0x16c>
    8394:	eb000883 	bl	a5a8 <printk>
    8398:	eb00095a 	bl	a908 <clean_reboot>
    839c:	e59f3094 	ldr	r3, [pc, #148]	; 8438 <fld_check_valid+0x17c>
    83a0:	e58d3000 	str	r3, [sp]
    83a4:	e3a03084 	mov	r3, #132, 0	; 0x84
    83a8:	e59f2070 	ldr	r2, [pc, #112]	; 8420 <fld_check_valid+0x164>
    83ac:	e59f1070 	ldr	r1, [pc, #112]	; 8424 <fld_check_valid+0x168>
    83b0:	e59f0070 	ldr	r0, [pc, #112]	; 8428 <fld_check_valid+0x16c>
    83b4:	eb00087b 	bl	a5a8 <printk>
    83b8:	eb000952 	bl	a908 <clean_reboot>
    83bc:	e59f3078 	ldr	r3, [pc, #120]	; 843c <fld_check_valid+0x180>
    83c0:	e58d3000 	str	r3, [sp]
    83c4:	e3a03085 	mov	r3, #133, 0	; 0x85
    83c8:	e59f2050 	ldr	r2, [pc, #80]	; 8420 <fld_check_valid+0x164>
    83cc:	e59f1050 	ldr	r1, [pc, #80]	; 8424 <fld_check_valid+0x168>
    83d0:	e59f0050 	ldr	r0, [pc, #80]	; 8428 <fld_check_valid+0x16c>
    83d4:	eb000873 	bl	a5a8 <printk>
    83d8:	eb00094a 	bl	a908 <clean_reboot>
    83dc:	e59f305c 	ldr	r3, [pc, #92]	; 8440 <fld_check_valid+0x184>
    83e0:	e58d3000 	str	r3, [sp]
    83e4:	e3a03086 	mov	r3, #134, 0	; 0x86
    83e8:	e59f2030 	ldr	r2, [pc, #48]	; 8420 <fld_check_valid+0x164>
    83ec:	e59f1030 	ldr	r1, [pc, #48]	; 8424 <fld_check_valid+0x168>
    83f0:	e59f0030 	ldr	r0, [pc, #48]	; 8428 <fld_check_valid+0x16c>
    83f4:	eb00086b 	bl	a5a8 <printk>
    83f8:	eb000942 	bl	a908 <clean_reboot>
    83fc:	e59f3040 	ldr	r3, [pc, #64]	; 8444 <fld_check_valid+0x188>
    8400:	e58d3000 	str	r3, [sp]
    8404:	e3a03087 	mov	r3, #135, 0	; 0x87
    8408:	e59f2010 	ldr	r2, [pc, #16]	; 8420 <fld_check_valid+0x164>
    840c:	e59f1010 	ldr	r1, [pc, #16]	; 8424 <fld_check_valid+0x168>
    8410:	e59f0010 	ldr	r0, [pc, #16]	; 8428 <fld_check_valid+0x16c>
    8414:	eb000863 	bl	a5a8 <printk>
    8418:	eb00093a 	bl	a908 <clean_reboot>
    841c:	0000b51c 	.word	0x0000b51c
    8420:	0000b858 	.word	0x0000b858
    8424:	0000b474 	.word	0x0000b474
    8428:	0000b39c 	.word	0x0000b39c
    842c:	0000b52c 	.word	0x0000b52c
    8430:	0000b53c 	.word	0x0000b53c
    8434:	0000b548 	.word	0x0000b548
    8438:	0000b554 	.word	0x0000b554
    843c:	0000b560 	.word	0x0000b560
    8440:	0000b56c 	.word	0x0000b56c
    8444:	0000b578 	.word	0x0000b578

00008448 <control_reg1_check_offsets>:
    8448:	e12fff1e 	bx	lr

0000844c <tlb_config_check_offsets>:
    844c:	e52de004 	push	{lr}		; (str lr, [sp, #-4]!)
    8450:	e49df004 	pop	{pc}		; (ldr pc, [sp], #4)

00008454 <mmu_be_quiet>:
    8454:	e59f3008 	ldr	r3, [pc, #8]	; 8464 <mmu_be_quiet+0x10>
    8458:	e3a02001 	mov	r2, #1, 0
    845c:	e5832000 	str	r2, [r3]
    8460:	e12fff1e 	bx	lr
    8464:	0000c66c 	.word	0x0000c66c

00008468 <hash_print>:
    8468:	e1a03002 	mov	r3, r2
    846c:	e59f2078 	ldr	r2, [pc, #120]	; 84ec <hash_print+0x84>
    8470:	e5922000 	ldr	r2, [r2]
    8474:	e3520000 	cmp	r2, #0, 0
    8478:	112fff1e 	bxne	lr
    847c:	e92d4010 	push	{r4, lr}
    8480:	e1a02123 	lsr	r2, r3, #2
    8484:	e1a0c003 	mov	ip, r3
    8488:	e3520000 	cmp	r2, #0, 0
    848c:	0a00000c 	beq	84c4 <hash_print+0x5c>
    8490:	e5d14001 	ldrb	r4, [r1, #1]
    8494:	e5d1e000 	ldrb	lr, [r1]
    8498:	e08ee404 	add	lr, lr, r4, lsl #8
    849c:	e08ee00c 	add	lr, lr, ip
    84a0:	e5d14003 	ldrb	r4, [r1, #3]
    84a4:	e5d1c002 	ldrb	ip, [r1, #2]
    84a8:	e08cc404 	add	ip, ip, r4, lsl #8
    84ac:	e02ec58c 	eor	ip, lr, ip, lsl #11
    84b0:	e02cc80e 	eor	ip, ip, lr, lsl #16
    84b4:	e2811004 	add	r1, r1, #4, 0
    84b8:	e08cc5ac 	add	ip, ip, ip, lsr #11
    84bc:	e2422001 	sub	r2, r2, #1, 0
    84c0:	eafffff0 	b	8488 <hash_print+0x20>
    84c4:	e02c118c 	eor	r1, ip, ip, lsl #3
    84c8:	e08112a1 	add	r1, r1, r1, lsr #5
    84cc:	e0211201 	eor	r1, r1, r1, lsl #4
    84d0:	e08118a1 	add	r1, r1, r1, lsr #17
    84d4:	e0211c81 	eor	r1, r1, r1, lsl #25
    84d8:	e0812321 	add	r2, r1, r1, lsr #6
    84dc:	e1a01000 	mov	r1, r0
    84e0:	e59f0008 	ldr	r0, [pc, #8]	; 84f0 <hash_print+0x88>
    84e4:	eb00082f 	bl	a5a8 <printk>
    84e8:	e8bd8010 	pop	{r4, pc}
    84ec:	0000c66c 	.word	0x0000c66c
    84f0:	0000b6ec 	.word	0x0000b6ec

000084f4 <domain_acl_print>:
    84f4:	e59f3028 	ldr	r3, [pc, #40]	; 8524 <domain_acl_print+0x30>
    84f8:	e5933000 	ldr	r3, [r3]
    84fc:	e3530000 	cmp	r3, #0, 0
    8500:	112fff1e 	bxne	lr
    8504:	e92d4010 	push	{r4, lr}
    8508:	e59f0018 	ldr	r0, [pc, #24]	; 8528 <domain_acl_print+0x34>
    850c:	eb000825 	bl	a5a8 <printk>
    8510:	eb0002cc 	bl	9048 <domain_access_ctrl_get>
    8514:	e1a01000 	mov	r1, r0
    8518:	e59f000c 	ldr	r0, [pc, #12]	; 852c <domain_acl_print+0x38>
    851c:	eb000821 	bl	a5a8 <printk>
    8520:	e8bd8010 	pop	{r4, pc}
    8524:	0000c66c 	.word	0x0000c66c
    8528:	0000b708 	.word	0x0000b708
    852c:	0000b720 	.word	0x0000b720

00008530 <control_reg1_print>:
    8530:	e92d4070 	push	{r4, r5, r6, lr}
    8534:	e1a04000 	mov	r4, r0
    8538:	ebfffef0 	bl	8100 <control_reg1_sanity_check>
    853c:	e59f01a4 	ldr	r0, [pc, #420]	; 86e8 <control_reg1_print+0x1b8>
    8540:	eb000818 	bl	a5a8 <printk>
    8544:	e5d41003 	ldrb	r1, [r4, #3]
    8548:	e1a012a1 	lsr	r1, r1, #5
    854c:	e59f5198 	ldr	r5, [pc, #408]	; 86ec <control_reg1_print+0x1bc>
    8550:	e59f2198 	ldr	r2, [pc, #408]	; 86f0 <control_reg1_print+0x1c0>
    8554:	e2011001 	and	r1, r1, #1, 0
    8558:	e1a00005 	mov	r0, r5
    855c:	eb000811 	bl	a5a8 <printk>
    8560:	e5d41003 	ldrb	r1, [r4, #3]
    8564:	e1a01221 	lsr	r1, r1, #4
    8568:	e59f2184 	ldr	r2, [pc, #388]	; 86f4 <control_reg1_print+0x1c4>
    856c:	e2011001 	and	r1, r1, #1, 0
    8570:	e1a00005 	mov	r0, r5
    8574:	eb00080b 	bl	a5a8 <printk>
    8578:	e5d41003 	ldrb	r1, [r4, #3]
    857c:	e1a01121 	lsr	r1, r1, #2
    8580:	e59f2170 	ldr	r2, [pc, #368]	; 86f8 <control_reg1_print+0x1c8>
    8584:	e2011001 	and	r1, r1, #1, 0
    8588:	e1a00005 	mov	r0, r5
    858c:	eb000805 	bl	a5a8 <printk>
    8590:	e5d41003 	ldrb	r1, [r4, #3]
    8594:	e1a010a1 	lsr	r1, r1, #1
    8598:	e59f215c 	ldr	r2, [pc, #348]	; 86fc <control_reg1_print+0x1cc>
    859c:	e2011001 	and	r1, r1, #1, 0
    85a0:	e1a00005 	mov	r0, r5
    85a4:	eb0007ff 	bl	a5a8 <printk>
    85a8:	e5d41003 	ldrb	r1, [r4, #3]
    85ac:	e59f214c 	ldr	r2, [pc, #332]	; 8700 <control_reg1_print+0x1d0>
    85b0:	e2011001 	and	r1, r1, #1, 0
    85b4:	e1a00005 	mov	r0, r5
    85b8:	eb0007fa 	bl	a5a8 <printk>
    85bc:	e5d41002 	ldrb	r1, [r4, #2]
    85c0:	e59f213c 	ldr	r2, [pc, #316]	; 8704 <control_reg1_print+0x1d4>
    85c4:	e1a013a1 	lsr	r1, r1, #7
    85c8:	e1a00005 	mov	r0, r5
    85cc:	eb0007f5 	bl	a5a8 <printk>
    85d0:	e5d41002 	ldrb	r1, [r4, #2]
    85d4:	e1a01321 	lsr	r1, r1, #6
    85d8:	e59f2128 	ldr	r2, [pc, #296]	; 8708 <control_reg1_print+0x1d8>
    85dc:	e2011001 	and	r1, r1, #1, 0
    85e0:	e1a00005 	mov	r0, r5
    85e4:	eb0007ef 	bl	a5a8 <printk>
    85e8:	e5d41002 	ldrb	r1, [r4, #2]
    85ec:	e1a012a1 	lsr	r1, r1, #5
    85f0:	e59f2114 	ldr	r2, [pc, #276]	; 870c <control_reg1_print+0x1dc>
    85f4:	e2011001 	and	r1, r1, #1, 0
    85f8:	e1a00005 	mov	r0, r5
    85fc:	eb0007e9 	bl	a5a8 <printk>
    8600:	e5d41001 	ldrb	r1, [r4, #1]
    8604:	e1a01321 	lsr	r1, r1, #6
    8608:	e59f2100 	ldr	r2, [pc, #256]	; 8710 <control_reg1_print+0x1e0>
    860c:	e2011001 	and	r1, r1, #1, 0
    8610:	e1a00005 	mov	r0, r5
    8614:	eb0007e3 	bl	a5a8 <printk>
    8618:	e5d41001 	ldrb	r1, [r4, #1]
    861c:	e1a01221 	lsr	r1, r1, #4
    8620:	e59f20ec 	ldr	r2, [pc, #236]	; 8714 <control_reg1_print+0x1e4>
    8624:	e2011001 	and	r1, r1, #1, 0
    8628:	e1a00005 	mov	r0, r5
    862c:	eb0007dd 	bl	a5a8 <printk>
    8630:	e5d41001 	ldrb	r1, [r4, #1]
    8634:	e1a011a1 	lsr	r1, r1, #3
    8638:	e59f20d8 	ldr	r2, [pc, #216]	; 8718 <control_reg1_print+0x1e8>
    863c:	e2011001 	and	r1, r1, #1, 0
    8640:	e1a00005 	mov	r0, r5
    8644:	eb0007d7 	bl	a5a8 <printk>
    8648:	e5d41001 	ldrb	r1, [r4, #1]
    864c:	e1a010a1 	lsr	r1, r1, #1
    8650:	e59f20c4 	ldr	r2, [pc, #196]	; 871c <control_reg1_print+0x1ec>
    8654:	e2011001 	and	r1, r1, #1, 0
    8658:	e1a00005 	mov	r0, r5
    865c:	eb0007d1 	bl	a5a8 <printk>
    8660:	e5d41001 	ldrb	r1, [r4, #1]
    8664:	e59f20b4 	ldr	r2, [pc, #180]	; 8720 <control_reg1_print+0x1f0>
    8668:	e2011001 	and	r1, r1, #1, 0
    866c:	e1a00005 	mov	r0, r5
    8670:	eb0007cc 	bl	a5a8 <printk>
    8674:	e5d41000 	ldrb	r1, [r4]
    8678:	e59f20a4 	ldr	r2, [pc, #164]	; 8724 <control_reg1_print+0x1f4>
    867c:	e1a013a1 	lsr	r1, r1, #7
    8680:	e1a00005 	mov	r0, r5
    8684:	eb0007c7 	bl	a5a8 <printk>
    8688:	e5d41000 	ldrb	r1, [r4]
    868c:	e1a011a1 	lsr	r1, r1, #3
    8690:	e59f2090 	ldr	r2, [pc, #144]	; 8728 <control_reg1_print+0x1f8>
    8694:	e2011001 	and	r1, r1, #1, 0
    8698:	e1a00005 	mov	r0, r5
    869c:	eb0007c1 	bl	a5a8 <printk>
    86a0:	e5d41000 	ldrb	r1, [r4]
    86a4:	e1a01121 	lsr	r1, r1, #2
    86a8:	e59f207c 	ldr	r2, [pc, #124]	; 872c <control_reg1_print+0x1fc>
    86ac:	e2011001 	and	r1, r1, #1, 0
    86b0:	e1a00005 	mov	r0, r5
    86b4:	eb0007bb 	bl	a5a8 <printk>
    86b8:	e5d41000 	ldrb	r1, [r4]
    86bc:	e1a010a1 	lsr	r1, r1, #1
    86c0:	e59f2068 	ldr	r2, [pc, #104]	; 8730 <control_reg1_print+0x200>
    86c4:	e2011001 	and	r1, r1, #1, 0
    86c8:	e1a00005 	mov	r0, r5
    86cc:	eb0007b5 	bl	a5a8 <printk>
    86d0:	e5d41000 	ldrb	r1, [r4]
    86d4:	e59f2058 	ldr	r2, [pc, #88]	; 8734 <control_reg1_print+0x204>
    86d8:	e2011001 	and	r1, r1, #1, 0
    86dc:	e1a00005 	mov	r0, r5
    86e0:	eb0007b0 	bl	a5a8 <printk>
    86e4:	e8bd8070 	pop	{r4, r5, r6, pc}
    86e8:	0000b728 	.word	0x0000b728
    86ec:	0000b740 	.word	0x0000b740
    86f0:	0000b678 	.word	0x0000b678
    86f4:	0000b668 	.word	0x0000b668
    86f8:	0000b4e4 	.word	0x0000b4e4
    86fc:	0000b664 	.word	0x0000b664
    8700:	0000b658 	.word	0x0000b658
    8704:	0000b650 	.word	0x0000b650
    8708:	0000b644 	.word	0x0000b644
    870c:	0000b640 	.word	0x0000b640
    8710:	0000b62c 	.word	0x0000b62c
    8714:	0000b4f4 	.word	0x0000b4f4
    8718:	0000b60c 	.word	0x0000b60c
    871c:	0000b5fc 	.word	0x0000b5fc
    8720:	0000b5f4 	.word	0x0000b5f4
    8724:	0000b5e8 	.word	0x0000b5e8
    8728:	0000b5dc 	.word	0x0000b5dc
    872c:	0000b508 	.word	0x0000b508
    8730:	0000b5d0 	.word	0x0000b5d0
    8734:	0000bdbc 	.word	0x0000bdbc

00008738 <tlb_config_print>:
    8738:	e92d4010 	push	{r4, lr}
    873c:	e1a04000 	mov	r4, r0
    8740:	e59f002c 	ldr	r0, [pc, #44]	; 8774 <tlb_config_print+0x3c>
    8744:	eb000797 	bl	a5a8 <printk>
    8748:	e5d41000 	ldrb	r1, [r4]
    874c:	e2011001 	and	r1, r1, #1, 0
    8750:	e59f0020 	ldr	r0, [pc, #32]	; 8778 <tlb_config_print+0x40>
    8754:	eb000793 	bl	a5a8 <printk>
    8758:	e5d41001 	ldrb	r1, [r4, #1]
    875c:	e59f0018 	ldr	r0, [pc, #24]	; 877c <tlb_config_print+0x44>
    8760:	eb000790 	bl	a5a8 <printk>
    8764:	e5d41002 	ldrb	r1, [r4, #2]
    8768:	e59f0010 	ldr	r0, [pc, #16]	; 8780 <tlb_config_print+0x48>
    876c:	eb00078d 	bl	a5a8 <printk>
    8770:	e8bd8010 	pop	{r4, pc}
    8774:	0000b74c 	.word	0x0000b74c
    8778:	0000b75c 	.word	0x0000b75c
    877c:	0000b76c 	.word	0x0000b76c
    8780:	0000b784 	.word	0x0000b784

00008784 <fld_mk>:
    8784:	e3a00002 	mov	r0, #2, 0
    8788:	e12fff1e 	bx	lr

0000878c <fld_check_offsets>:
    878c:	e52de004 	push	{lr}		; (str lr, [sp, #-4]!)
    8790:	e24dd024 	sub	sp, sp, #36, 0	; 0x24
    8794:	ebfffffa 	bl	8784 <fld_mk>
    8798:	e58d001c 	str	r0, [sp, #28]
    879c:	e28d001c 	add	r0, sp, #28, 0
    87a0:	ebfffec5 	bl	82bc <fld_check_valid>
    87a4:	e28dd024 	add	sp, sp, #36, 0	; 0x24
    87a8:	e49df004 	pop	{pc}		; (ldr pc, [sp], #4)

000087ac <fld_print>:
    87ac:	e59f31a0 	ldr	r3, [pc, #416]	; 8954 <fld_print+0x1a8>
    87b0:	e5933000 	ldr	r3, [r3]
    87b4:	e3530000 	cmp	r3, #0, 0
    87b8:	112fff1e 	bxne	lr
    87bc:	e92d4070 	push	{r4, r5, r6, lr}
    87c0:	e1a04000 	mov	r4, r0
    87c4:	e59f018c 	ldr	r0, [pc, #396]	; 8958 <fld_print+0x1ac>
    87c8:	eb000776 	bl	a5a8 <printk>
    87cc:	e1a01004 	mov	r1, r4
    87d0:	e59f0184 	ldr	r0, [pc, #388]	; 895c <fld_print+0x1b0>
    87d4:	eb000773 	bl	a5a8 <printk>
    87d8:	e1d410b2 	ldrh	r1, [r4, #2]
    87dc:	e59f217c 	ldr	r2, [pc, #380]	; 8960 <fld_print+0x1b4>
    87e0:	e1a01221 	lsr	r1, r1, #4
    87e4:	e59f0178 	ldr	r0, [pc, #376]	; 8964 <fld_print+0x1b8>
    87e8:	eb00076e 	bl	a5a8 <printk>
    87ec:	e1d430b2 	ldrh	r3, [r4, #2]
    87f0:	e1a01223 	lsr	r1, r3, #4
    87f4:	e353008f 	cmp	r3, #143, 0	; 0x8f
    87f8:	8a00004f 	bhi	893c <fld_print+0x190>
    87fc:	e1d410b2 	ldrh	r1, [r4, #2]
    8800:	e1a01221 	lsr	r1, r1, #4
    8804:	e1a01a01 	lsl	r1, r1, #20
    8808:	e59f0158 	ldr	r0, [pc, #344]	; 8968 <fld_print+0x1bc>
    880c:	eb000765 	bl	a5a8 <printk>
    8810:	e59f0154 	ldr	r0, [pc, #340]	; 896c <fld_print+0x1c0>
    8814:	eb000763 	bl	a5a8 <printk>
    8818:	e5d41002 	ldrb	r1, [r4, #2]
    881c:	e1a010a1 	lsr	r1, r1, #1
    8820:	e59f513c 	ldr	r5, [pc, #316]	; 8964 <fld_print+0x1b8>
    8824:	e59f2144 	ldr	r2, [pc, #324]	; 8970 <fld_print+0x1c4>
    8828:	e2011001 	and	r1, r1, #1, 0
    882c:	e1a00005 	mov	r0, r5
    8830:	eb00075c 	bl	a5a8 <printk>
    8834:	e5d41002 	ldrb	r1, [r4, #2]
    8838:	e59f2134 	ldr	r2, [pc, #308]	; 8974 <fld_print+0x1c8>
    883c:	e2011001 	and	r1, r1, #1, 0
    8840:	e1a00005 	mov	r0, r5
    8844:	eb000757 	bl	a5a8 <printk>
    8848:	e5d41001 	ldrb	r1, [r4, #1]
    884c:	e59f2124 	ldr	r2, [pc, #292]	; 8978 <fld_print+0x1cc>
    8850:	e1a013a1 	lsr	r1, r1, #7
    8854:	e1a00005 	mov	r0, r5
    8858:	eb000752 	bl	a5a8 <printk>
    885c:	e5d41001 	ldrb	r1, [r4, #1]
    8860:	e1a01221 	lsr	r1, r1, #4
    8864:	e59f2110 	ldr	r2, [pc, #272]	; 897c <fld_print+0x1d0>
    8868:	e2011007 	and	r1, r1, #7, 0
    886c:	e1a00005 	mov	r0, r5
    8870:	eb00074c 	bl	a5a8 <printk>
    8874:	e5d41001 	ldrb	r1, [r4, #1]
    8878:	e1a01121 	lsr	r1, r1, #2
    887c:	e59f20fc 	ldr	r2, [pc, #252]	; 8980 <fld_print+0x1d4>
    8880:	e2011003 	and	r1, r1, #3, 0
    8884:	e1a00005 	mov	r0, r5
    8888:	eb000746 	bl	a5a8 <printk>
    888c:	e5d41001 	ldrb	r1, [r4, #1]
    8890:	e1a010a1 	lsr	r1, r1, #1
    8894:	e59f20e8 	ldr	r2, [pc, #232]	; 8984 <fld_print+0x1d8>
    8898:	e2011001 	and	r1, r1, #1, 0
    889c:	e1a00005 	mov	r0, r5
    88a0:	eb000740 	bl	a5a8 <printk>
    88a4:	e1d410b0 	ldrh	r1, [r4]
    88a8:	e1a012a1 	lsr	r1, r1, #5
    88ac:	e59f20d4 	ldr	r2, [pc, #212]	; 8988 <fld_print+0x1dc>
    88b0:	e201100f 	and	r1, r1, #15, 0
    88b4:	e1a00005 	mov	r0, r5
    88b8:	eb00073a 	bl	a5a8 <printk>
    88bc:	e1d410b0 	ldrh	r1, [r4]
    88c0:	e1a012a1 	lsr	r1, r1, #5
    88c4:	e201100f 	and	r1, r1, #15, 0
    88c8:	e3510008 	cmp	r1, #8, 0
    88cc:	8a00001d 	bhi	8948 <fld_print+0x19c>
    88d0:	e5d41000 	ldrb	r1, [r4]
    88d4:	e1a01221 	lsr	r1, r1, #4
    88d8:	e59f5084 	ldr	r5, [pc, #132]	; 8964 <fld_print+0x1b8>
    88dc:	e59f20a8 	ldr	r2, [pc, #168]	; 898c <fld_print+0x1e0>
    88e0:	e2011001 	and	r1, r1, #1, 0
    88e4:	e1a00005 	mov	r0, r5
    88e8:	eb00072e 	bl	a5a8 <printk>
    88ec:	e5d41000 	ldrb	r1, [r4]
    88f0:	e1a011a1 	lsr	r1, r1, #3
    88f4:	e59f2094 	ldr	r2, [pc, #148]	; 8990 <fld_print+0x1e4>
    88f8:	e2011001 	and	r1, r1, #1, 0
    88fc:	e1a00005 	mov	r0, r5
    8900:	eb000728 	bl	a5a8 <printk>
    8904:	e5d41000 	ldrb	r1, [r4]
    8908:	e1a01121 	lsr	r1, r1, #2
    890c:	e59f2080 	ldr	r2, [pc, #128]	; 8994 <fld_print+0x1e8>
    8910:	e2011001 	and	r1, r1, #1, 0
    8914:	e1a00005 	mov	r0, r5
    8918:	eb000722 	bl	a5a8 <printk>
    891c:	e5d41000 	ldrb	r1, [r4]
    8920:	e59f2070 	ldr	r2, [pc, #112]	; 8998 <fld_print+0x1ec>
    8924:	e2011003 	and	r1, r1, #3, 0
    8928:	e1a00005 	mov	r0, r5
    892c:	eb00071d 	bl	a5a8 <printk>
    8930:	e1a00004 	mov	r0, r4
    8934:	ebfffe60 	bl	82bc <fld_check_valid>
    8938:	e8bd8070 	pop	{r4, r5, r6, pc}
    893c:	e59f0058 	ldr	r0, [pc, #88]	; 899c <fld_print+0x1f0>
    8940:	eb000718 	bl	a5a8 <printk>
    8944:	eaffffac 	b	87fc <fld_print+0x50>
    8948:	e59f004c 	ldr	r0, [pc, #76]	; 899c <fld_print+0x1f0>
    894c:	eb000715 	bl	a5a8 <printk>
    8950:	eaffffde 	b	88d0 <fld_print+0x124>
    8954:	0000c66c 	.word	0x0000c66c
    8958:	0000b7e4 	.word	0x0000b7e4
    895c:	0000b804 	.word	0x0000b804
    8960:	0000b7d4 	.word	0x0000b7d4
    8964:	0000b740 	.word	0x0000b740
    8968:	0000b814 	.word	0x0000b814
    896c:	0000b824 	.word	0x0000b824
    8970:	0000b7c8 	.word	0x0000b7c8
    8974:	0000b7c4 	.word	0x0000b7c4
    8978:	0000b7c0 	.word	0x0000b7c0
    897c:	0000b7bc 	.word	0x0000b7bc
    8980:	0000b7b8 	.word	0x0000b7b8
    8984:	0000b7b4 	.word	0x0000b7b4
    8988:	0000b7ac 	.word	0x0000b7ac
    898c:	0000b7a8 	.word	0x0000b7a8
    8990:	0000b7a4 	.word	0x0000b7a4
    8994:	0000b7a0 	.word	0x0000b7a0
    8998:	0000b79c 	.word	0x0000b79c
    899c:	0000b80c 	.word	0x0000b80c

000089a0 <check_vm_structs>:
    89a0:	e92d4010 	push	{r4, lr}
    89a4:	ebfffea7 	bl	8448 <control_reg1_check_offsets>
    89a8:	ebfffea7 	bl	844c <tlb_config_check_offsets>
    89ac:	ebffff76 	bl	878c <fld_check_offsets>
    89b0:	e8bd8010 	pop	{r4, pc}

000089b4 <mmu_is_enabled>:
    89b4:	e92d4010 	push	{r4, lr}
    89b8:	eb000574 	bl	9f90 <cp15_ctrl_reg1_rd>
    89bc:	e2000001 	and	r0, r0, #1, 0
    89c0:	e8bd8010 	pop	{r4, pc}

000089c4 <mmu_pt_init>:
    89c4:	e92d4010 	push	{r4, lr}
    89c8:	e24dd010 	sub	sp, sp, #16, 0
    89cc:	e1a04000 	mov	r4, r0
    89d0:	e1a03900 	lsl	r3, r0, #18
    89d4:	e1a03923 	lsr	r3, r3, #18
    89d8:	e3530000 	cmp	r3, #0, 0
    89dc:	1a000007 	bne	8a00 <mmu_pt_init+0x3c>
    89e0:	e3510901 	cmp	r1, #16384	; 0x4000
    89e4:	1a00000f 	bne	8a28 <mmu_pt_init+0x64>
    89e8:	e3a02901 	mov	r2, #16384	; 0x4000
    89ec:	e3a01000 	mov	r1, #0, 0
    89f0:	eb0006b9 	bl	a4dc <memset>
    89f4:	e1a00004 	mov	r0, r4
    89f8:	e28dd010 	add	sp, sp, #16, 0
    89fc:	e8bd8010 	pop	{r4, pc}
    8a00:	e58d3008 	str	r3, [sp, #8]
    8a04:	e3a0300e 	mov	r3, #14, 0
    8a08:	e58d3004 	str	r3, [sp, #4]
    8a0c:	e58d0000 	str	r0, [sp]
    8a10:	e3a0309b 	mov	r3, #155, 0	; 0x9b
    8a14:	e59f2034 	ldr	r2, [pc, #52]	; 8a50 <mmu_pt_init+0x8c>
    8a18:	e59f1034 	ldr	r1, [pc, #52]	; 8a54 <mmu_pt_init+0x90>
    8a1c:	e59f0034 	ldr	r0, [pc, #52]	; 8a58 <mmu_pt_init+0x94>
    8a20:	eb0006e0 	bl	a5a8 <printk>
    8a24:	eb0007b7 	bl	a908 <clean_reboot>
    8a28:	e59f302c 	ldr	r3, [pc, #44]	; 8a5c <mmu_pt_init+0x98>
    8a2c:	e58d3004 	str	r3, [sp, #4]
    8a30:	e59f3028 	ldr	r3, [pc, #40]	; 8a60 <mmu_pt_init+0x9c>
    8a34:	e58d3000 	str	r3, [sp]
    8a38:	e3a0301a 	mov	r3, #26, 0
    8a3c:	e59f2020 	ldr	r2, [pc, #32]	; 8a64 <mmu_pt_init+0xa0>
    8a40:	e59f1020 	ldr	r1, [pc, #32]	; 8a68 <mmu_pt_init+0xa4>
    8a44:	e59f0020 	ldr	r0, [pc, #32]	; 8a6c <mmu_pt_init+0xa8>
    8a48:	eb0006d6 	bl	a5a8 <printk>
    8a4c:	eb0007ad 	bl	a908 <clean_reboot>
    8a50:	0000bb2c 	.word	0x0000bb2c
    8a54:	0000b8b4 	.word	0x0000b8b4
    8a58:	0000b8bc 	.word	0x0000b8bc
    8a5c:	0000b930 	.word	0x0000b930
    8a60:	0000b950 	.word	0x0000b950
    8a64:	0000bb38 	.word	0x0000bb38
    8a68:	0000b8f8 	.word	0x0000b8f8
    8a6c:	0000b900 	.word	0x0000b900

00008a70 <mmu_pt_alloc>:
    8a70:	e52de004 	push	{lr}		; (str lr, [sp, #-4]!)
    8a74:	e24dd00c 	sub	sp, sp, #12, 0
    8a78:	e3500a01 	cmp	r0, #4096	; 0x1000
    8a7c:	1a00000a 	bne	8aac <mmu_pt_alloc+0x3c>
    8a80:	e3a01901 	mov	r1, #16384	; 0x4000
    8a84:	e1a00001 	mov	r0, r1
    8a88:	eb00097a 	bl	b078 <kmalloc_aligned>
    8a8c:	e1a03900 	lsl	r3, r0, #18
    8a90:	e1a03923 	lsr	r3, r3, #18
    8a94:	e3530000 	cmp	r3, #0, 0
    8a98:	1a00000d 	bne	8ad4 <mmu_pt_alloc+0x64>
    8a9c:	e3a01901 	mov	r1, #16384	; 0x4000
    8aa0:	ebffffc7 	bl	89c4 <mmu_pt_init>
    8aa4:	e28dd00c 	add	sp, sp, #12, 0
    8aa8:	e49df004 	pop	{pc}		; (ldr pc, [sp], #4)
    8aac:	e59f3048 	ldr	r3, [pc, #72]	; 8afc <mmu_pt_alloc+0x8c>
    8ab0:	e58d3004 	str	r3, [sp, #4]
    8ab4:	e59f3044 	ldr	r3, [pc, #68]	; 8b00 <mmu_pt_alloc+0x90>
    8ab8:	e58d3000 	str	r3, [sp]
    8abc:	e3a03021 	mov	r3, #33, 0	; 0x21
    8ac0:	e59f203c 	ldr	r2, [pc, #60]	; 8b04 <mmu_pt_alloc+0x94>
    8ac4:	e59f103c 	ldr	r1, [pc, #60]	; 8b08 <mmu_pt_alloc+0x98>
    8ac8:	e59f003c 	ldr	r0, [pc, #60]	; 8b0c <mmu_pt_alloc+0x9c>
    8acc:	eb0006b5 	bl	a5a8 <printk>
    8ad0:	eb00078c 	bl	a908 <clean_reboot>
    8ad4:	e59f3034 	ldr	r3, [pc, #52]	; 8b10 <mmu_pt_alloc+0xa0>
    8ad8:	e58d3004 	str	r3, [sp, #4]
    8adc:	e59f3030 	ldr	r3, [pc, #48]	; 8b14 <mmu_pt_alloc+0xa4>
    8ae0:	e58d3000 	str	r3, [sp]
    8ae4:	e3a03027 	mov	r3, #39, 0	; 0x27
    8ae8:	e59f2014 	ldr	r2, [pc, #20]	; 8b04 <mmu_pt_alloc+0x94>
    8aec:	e59f1014 	ldr	r1, [pc, #20]	; 8b08 <mmu_pt_alloc+0x98>
    8af0:	e59f0014 	ldr	r0, [pc, #20]	; 8b0c <mmu_pt_alloc+0x9c>
    8af4:	eb0006ab 	bl	a5a8 <printk>
    8af8:	eb000782 	bl	a908 <clean_reboot>
    8afc:	0000b95c 	.word	0x0000b95c
    8b00:	0000b994 	.word	0x0000b994
    8b04:	0000bb44 	.word	0x0000bb44
    8b08:	0000b8f8 	.word	0x0000b8f8
    8b0c:	0000b900 	.word	0x0000b900
    8b10:	0000b9a0 	.word	0x0000b9a0
    8b14:	0000b9b8 	.word	0x0000b9b8

00008b18 <mmu_disable_set>:
    8b18:	e52de004 	push	{lr}		; (str lr, [sp, #-4]!)
    8b1c:	e24dd00c 	sub	sp, sp, #12, 0
    8b20:	e3100001 	tst	r0, #1, 0
    8b24:	1a000005 	bne	8b40 <mmu_disable_set+0x28>
    8b28:	e6ef3070 	uxtb	r3, r0
    8b2c:	e3130004 	tst	r3, #4, 0
    8b30:	1a00000a 	bne	8b60 <mmu_disable_set+0x48>
    8b34:	eb0005d0 	bl	a27c <staff_mmu_disable_set_asm>
    8b38:	e28dd00c 	add	sp, sp, #12, 0
    8b3c:	e49df004 	pop	{pc}		; (ldr pc, [sp], #4)
    8b40:	e59f3038 	ldr	r3, [pc, #56]	; 8b80 <mmu_disable_set+0x68>
    8b44:	e58d3000 	str	r3, [sp]
    8b48:	e3a03033 	mov	r3, #51, 0	; 0x33
    8b4c:	e59f2030 	ldr	r2, [pc, #48]	; 8b84 <mmu_disable_set+0x6c>
    8b50:	e59f1030 	ldr	r1, [pc, #48]	; 8b88 <mmu_disable_set+0x70>
    8b54:	e59f0030 	ldr	r0, [pc, #48]	; 8b8c <mmu_disable_set+0x74>
    8b58:	eb000692 	bl	a5a8 <printk>
    8b5c:	eb000769 	bl	a908 <clean_reboot>
    8b60:	e59f3028 	ldr	r3, [pc, #40]	; 8b90 <mmu_disable_set+0x78>
    8b64:	e58d3000 	str	r3, [sp]
    8b68:	e3a03034 	mov	r3, #52, 0	; 0x34
    8b6c:	e59f2010 	ldr	r2, [pc, #16]	; 8b84 <mmu_disable_set+0x6c>
    8b70:	e59f1010 	ldr	r1, [pc, #16]	; 8b88 <mmu_disable_set+0x70>
    8b74:	e59f0010 	ldr	r0, [pc, #16]	; 8b8c <mmu_disable_set+0x74>
    8b78:	eb00068a 	bl	a5a8 <printk>
    8b7c:	eb000761 	bl	a908 <clean_reboot>
    8b80:	0000b9e4 	.word	0x0000b9e4
    8b84:	0000bb54 	.word	0x0000bb54
    8b88:	0000b8f8 	.word	0x0000b8f8
    8b8c:	0000b39c 	.word	0x0000b39c
    8b90:	0000b9f4 	.word	0x0000b9f4

00008b94 <mmu_disable>:
    8b94:	e52de004 	push	{lr}		; (str lr, [sp, #-4]!)
    8b98:	e24dd00c 	sub	sp, sp, #12, 0
    8b9c:	eb0004fb 	bl	9f90 <cp15_ctrl_reg1_rd>
    8ba0:	e3100001 	tst	r0, #1, 0
    8ba4:	0a000003 	beq	8bb8 <mmu_disable+0x24>
    8ba8:	e3c00001 	bic	r0, r0, #1, 0
    8bac:	ebffffd9 	bl	8b18 <mmu_disable_set>
    8bb0:	e28dd00c 	add	sp, sp, #12, 0
    8bb4:	e49df004 	pop	{pc}		; (ldr pc, [sp], #4)
    8bb8:	e59f3018 	ldr	r3, [pc, #24]	; 8bd8 <mmu_disable+0x44>
    8bbc:	e58d3000 	str	r3, [sp]
    8bc0:	e3a0303f 	mov	r3, #63, 0	; 0x3f
    8bc4:	e59f2010 	ldr	r2, [pc, #16]	; 8bdc <mmu_disable+0x48>
    8bc8:	e59f1010 	ldr	r1, [pc, #16]	; 8be0 <mmu_disable+0x4c>
    8bcc:	e59f0010 	ldr	r0, [pc, #16]	; 8be4 <mmu_disable+0x50>
    8bd0:	eb000674 	bl	a5a8 <printk>
    8bd4:	eb00074b 	bl	a908 <clean_reboot>
    8bd8:	0000ba08 	.word	0x0000ba08
    8bdc:	0000bb64 	.word	0x0000bb64
    8be0:	0000b8f8 	.word	0x0000b8f8
    8be4:	0000b39c 	.word	0x0000b39c

00008be8 <mmu_enable_set>:
    8be8:	e52de004 	push	{lr}		; (str lr, [sp, #-4]!)
    8bec:	e24dd00c 	sub	sp, sp, #12, 0
    8bf0:	e3100001 	tst	r0, #1, 0
    8bf4:	0a000002 	beq	8c04 <mmu_enable_set+0x1c>
    8bf8:	eb000585 	bl	a214 <staff_mmu_enable_set_asm>
    8bfc:	e28dd00c 	add	sp, sp, #12, 0
    8c00:	e49df004 	pop	{pc}		; (ldr pc, [sp], #4)
    8c04:	e59f3018 	ldr	r3, [pc, #24]	; 8c24 <mmu_enable_set+0x3c>
    8c08:	e58d3000 	str	r3, [sp]
    8c0c:	e3a03049 	mov	r3, #73, 0	; 0x49
    8c10:	e59f2010 	ldr	r2, [pc, #16]	; 8c28 <mmu_enable_set+0x40>
    8c14:	e59f1010 	ldr	r1, [pc, #16]	; 8c2c <mmu_enable_set+0x44>
    8c18:	e59f0010 	ldr	r0, [pc, #16]	; 8c30 <mmu_enable_set+0x48>
    8c1c:	eb000661 	bl	a5a8 <printk>
    8c20:	eb000738 	bl	a908 <clean_reboot>
    8c24:	0000ba08 	.word	0x0000ba08
    8c28:	0000bb70 	.word	0x0000bb70
    8c2c:	0000b8f8 	.word	0x0000b8f8
    8c30:	0000b39c 	.word	0x0000b39c

00008c34 <mmu_enable>:
    8c34:	e52de004 	push	{lr}		; (str lr, [sp, #-4]!)
    8c38:	e24dd00c 	sub	sp, sp, #12, 0
    8c3c:	eb0004d3 	bl	9f90 <cp15_ctrl_reg1_rd>
    8c40:	e3100001 	tst	r0, #1, 0
    8c44:	1a000003 	bne	8c58 <mmu_enable+0x24>
    8c48:	e3800001 	orr	r0, r0, #1, 0
    8c4c:	ebffffe5 	bl	8be8 <mmu_enable_set>
    8c50:	e28dd00c 	add	sp, sp, #12, 0
    8c54:	e49df004 	pop	{pc}		; (ldr pc, [sp], #4)
    8c58:	e59f3018 	ldr	r3, [pc, #24]	; 8c78 <mmu_enable+0x44>
    8c5c:	e58d3000 	str	r3, [sp]
    8c60:	e3a03051 	mov	r3, #81, 0	; 0x51
    8c64:	e59f2010 	ldr	r2, [pc, #16]	; 8c7c <mmu_enable+0x48>
    8c68:	e59f1010 	ldr	r1, [pc, #16]	; 8c80 <mmu_enable+0x4c>
    8c6c:	e59f0010 	ldr	r0, [pc, #16]	; 8c84 <mmu_enable+0x50>
    8c70:	eb00064c 	bl	a5a8 <printk>
    8c74:	eb000723 	bl	a908 <clean_reboot>
    8c78:	0000b9e4 	.word	0x0000b9e4
    8c7c:	0000bb80 	.word	0x0000bb80
    8c80:	0000b8f8 	.word	0x0000b8f8
    8c84:	0000b39c 	.word	0x0000b39c

00008c88 <set_procid_ttbr0>:
    8c88:	e52de004 	push	{lr}		; (str lr, [sp, #-4]!)
    8c8c:	e24dd00c 	sub	sp, sp, #12, 0
    8c90:	e1a03001 	mov	r3, r1
    8c94:	e1a01002 	mov	r1, r2
    8c98:	e1b02c20 	lsrs	r2, r0, #24
    8c9c:	1a000008 	bne	8cc4 <set_procid_ttbr0+0x3c>
    8ca0:	e3500040 	cmp	r0, #64, 0	; 0x40
    8ca4:	9a00000e 	bls	8ce4 <set_procid_ttbr0+0x5c>
    8ca8:	e2432001 	sub	r2, r3, #1, 0
    8cac:	e352003e 	cmp	r2, #62, 0	; 0x3e
    8cb0:	8a000013 	bhi	8d04 <set_procid_ttbr0+0x7c>
    8cb4:	e1830400 	orr	r0, r3, r0, lsl #8
    8cb8:	eb000531 	bl	a184 <staff_cp15_set_procid_ttbr0>
    8cbc:	e28dd00c 	add	sp, sp, #12, 0
    8cc0:	e49df004 	pop	{pc}		; (ldr pc, [sp], #4)
    8cc4:	e59f3058 	ldr	r3, [pc, #88]	; 8d24 <set_procid_ttbr0+0x9c>
    8cc8:	e58d3000 	str	r3, [sp]
    8ccc:	e3a03058 	mov	r3, #88, 0	; 0x58
    8cd0:	e59f2050 	ldr	r2, [pc, #80]	; 8d28 <set_procid_ttbr0+0xa0>
    8cd4:	e59f1050 	ldr	r1, [pc, #80]	; 8d2c <set_procid_ttbr0+0xa4>
    8cd8:	e59f0050 	ldr	r0, [pc, #80]	; 8d30 <set_procid_ttbr0+0xa8>
    8cdc:	eb000631 	bl	a5a8 <printk>
    8ce0:	eb000708 	bl	a908 <clean_reboot>
    8ce4:	e59f3048 	ldr	r3, [pc, #72]	; 8d34 <set_procid_ttbr0+0xac>
    8ce8:	e58d3000 	str	r3, [sp]
    8cec:	e3a03059 	mov	r3, #89, 0	; 0x59
    8cf0:	e59f2030 	ldr	r2, [pc, #48]	; 8d28 <set_procid_ttbr0+0xa0>
    8cf4:	e59f1030 	ldr	r1, [pc, #48]	; 8d2c <set_procid_ttbr0+0xa4>
    8cf8:	e59f0030 	ldr	r0, [pc, #48]	; 8d30 <set_procid_ttbr0+0xa8>
    8cfc:	eb000629 	bl	a5a8 <printk>
    8d00:	eb000700 	bl	a908 <clean_reboot>
    8d04:	e59f302c 	ldr	r3, [pc, #44]	; 8d38 <set_procid_ttbr0+0xb0>
    8d08:	e58d3000 	str	r3, [sp]
    8d0c:	e3a0305a 	mov	r3, #90, 0	; 0x5a
    8d10:	e59f2010 	ldr	r2, [pc, #16]	; 8d28 <set_procid_ttbr0+0xa0>
    8d14:	e59f1010 	ldr	r1, [pc, #16]	; 8d2c <set_procid_ttbr0+0xa4>
    8d18:	e59f0010 	ldr	r0, [pc, #16]	; 8d30 <set_procid_ttbr0+0xa8>
    8d1c:	eb000621 	bl	a5a8 <printk>
    8d20:	eb0006f8 	bl	a908 <clean_reboot>
    8d24:	0000ba18 	.word	0x0000ba18
    8d28:	0000bb8c 	.word	0x0000bb8c
    8d2c:	0000b8f8 	.word	0x0000b8f8
    8d30:	0000b39c 	.word	0x0000b39c
    8d34:	0000ba2c 	.word	0x0000ba2c
    8d38:	0000ba38 	.word	0x0000ba38

00008d3c <mmu_map_sections>:
    8d3c:	e52de004 	push	{lr}		; (str lr, [sp, #-4]!)
    8d40:	e24dd014 	sub	sp, sp, #20, 0
    8d44:	e59de018 	ldr	lr, [sp, #24]
    8d48:	e35e000f 	cmp	lr, #15, 0
    8d4c:	8a00000b 	bhi	8d80 <mmu_map_sections+0x44>
    8d50:	e3c1c4ff 	bic	ip, r1, #-16777216	; 0xff000000
    8d54:	e3ccc60f 	bic	ip, ip, #15728640	; 0xf00000
    8d58:	e35c0000 	cmp	ip, #0, 0
    8d5c:	1a00000f 	bne	8da0 <mmu_map_sections+0x64>
    8d60:	e3c2c4ff 	bic	ip, r2, #-16777216	; 0xff000000
    8d64:	e3ccc60f 	bic	ip, ip, #15728640	; 0xf00000
    8d68:	e35c0000 	cmp	ip, #0, 0
    8d6c:	1a000015 	bne	8dc8 <mmu_map_sections+0x8c>
    8d70:	e58de000 	str	lr, [sp]
    8d74:	eb000294 	bl	97cc <staff_mmu_map_sections>
    8d78:	e28dd014 	add	sp, sp, #20, 0
    8d7c:	e49df004 	pop	{pc}		; (ldr pc, [sp], #4)
    8d80:	e59f3068 	ldr	r3, [pc, #104]	; 8df0 <mmu_map_sections+0xb4>
    8d84:	e58d3000 	str	r3, [sp]
    8d88:	e3a03067 	mov	r3, #103, 0	; 0x67
    8d8c:	e59f2060 	ldr	r2, [pc, #96]	; 8df4 <mmu_map_sections+0xb8>
    8d90:	e59f1060 	ldr	r1, [pc, #96]	; 8df8 <mmu_map_sections+0xbc>
    8d94:	e59f0060 	ldr	r0, [pc, #96]	; 8dfc <mmu_map_sections+0xc0>
    8d98:	eb000602 	bl	a5a8 <printk>
    8d9c:	eb0006d9 	bl	a908 <clean_reboot>
    8da0:	e58dc008 	str	ip, [sp, #8]
    8da4:	e3a03014 	mov	r3, #20, 0
    8da8:	e58d3004 	str	r3, [sp, #4]
    8dac:	e58d1000 	str	r1, [sp]
    8db0:	e3a0309b 	mov	r3, #155, 0	; 0x9b
    8db4:	e59f2044 	ldr	r2, [pc, #68]	; 8e00 <mmu_map_sections+0xc4>
    8db8:	e59f1044 	ldr	r1, [pc, #68]	; 8e04 <mmu_map_sections+0xc8>
    8dbc:	e59f0044 	ldr	r0, [pc, #68]	; 8e08 <mmu_map_sections+0xcc>
    8dc0:	eb0005f8 	bl	a5a8 <printk>
    8dc4:	eb0006cf 	bl	a908 <clean_reboot>
    8dc8:	e58dc008 	str	ip, [sp, #8]
    8dcc:	e3a03014 	mov	r3, #20, 0
    8dd0:	e58d3004 	str	r3, [sp, #4]
    8dd4:	e58d2000 	str	r2, [sp]
    8dd8:	e3a0309b 	mov	r3, #155, 0	; 0x9b
    8ddc:	e59f201c 	ldr	r2, [pc, #28]	; 8e00 <mmu_map_sections+0xc4>
    8de0:	e59f101c 	ldr	r1, [pc, #28]	; 8e04 <mmu_map_sections+0xc8>
    8de4:	e59f001c 	ldr	r0, [pc, #28]	; 8e08 <mmu_map_sections+0xcc>
    8de8:	eb0005ee 	bl	a5a8 <printk>
    8dec:	eb0006c5 	bl	a908 <clean_reboot>
    8df0:	0000ba4c 	.word	0x0000ba4c
    8df4:	0000bba0 	.word	0x0000bba0
    8df8:	0000b8f8 	.word	0x0000b8f8
    8dfc:	0000b39c 	.word	0x0000b39c
    8e00:	0000bb2c 	.word	0x0000bb2c
    8e04:	0000b8b4 	.word	0x0000b8b4
    8e08:	0000b8bc 	.word	0x0000b8bc

00008e0c <mmu_lookup_section>:
    8e0c:	e52de004 	push	{lr}		; (str lr, [sp, #-4]!)
    8e10:	e24dd014 	sub	sp, sp, #20, 0
    8e14:	e3c134ff 	bic	r3, r1, #-16777216	; 0xff000000
    8e18:	e3c3360f 	bic	r3, r3, #15728640	; 0xf00000
    8e1c:	e3530000 	cmp	r3, #0, 0
    8e20:	1a000005 	bne	8e3c <mmu_lookup_section+0x30>
    8e24:	eb0001a9 	bl	94d0 <staff_mmu_lookup_section>
    8e28:	e5d03000 	ldrb	r3, [r0]
    8e2c:	e3130003 	tst	r3, #3, 0
    8e30:	0a00000b 	beq	8e64 <mmu_lookup_section+0x58>
    8e34:	e28dd014 	add	sp, sp, #20, 0
    8e38:	e49df004 	pop	{pc}		; (ldr pc, [sp], #4)
    8e3c:	e58d3008 	str	r3, [sp, #8]
    8e40:	e3a03014 	mov	r3, #20, 0
    8e44:	e58d3004 	str	r3, [sp, #4]
    8e48:	e58d1000 	str	r1, [sp]
    8e4c:	e3a0309b 	mov	r3, #155, 0	; 0x9b
    8e50:	e59f2034 	ldr	r2, [pc, #52]	; 8e8c <mmu_lookup_section+0x80>
    8e54:	e59f1034 	ldr	r1, [pc, #52]	; 8e90 <mmu_lookup_section+0x84>
    8e58:	e59f0034 	ldr	r0, [pc, #52]	; 8e94 <mmu_lookup_section+0x88>
    8e5c:	eb0005d1 	bl	a5a8 <printk>
    8e60:	eb0006a8 	bl	a908 <clean_reboot>
    8e64:	e59f302c 	ldr	r3, [pc, #44]	; 8e98 <mmu_lookup_section+0x8c>
    8e68:	e58d3004 	str	r3, [sp, #4]
    8e6c:	e59f3028 	ldr	r3, [pc, #40]	; 8e9c <mmu_lookup_section+0x90>
    8e70:	e58d3000 	str	r3, [sp]
    8e74:	e3a03078 	mov	r3, #120, 0	; 0x78
    8e78:	e59f2020 	ldr	r2, [pc, #32]	; 8ea0 <mmu_lookup_section+0x94>
    8e7c:	e59f1020 	ldr	r1, [pc, #32]	; 8ea4 <mmu_lookup_section+0x98>
    8e80:	e59f0020 	ldr	r0, [pc, #32]	; 8ea8 <mmu_lookup_section+0x9c>
    8e84:	eb0005c7 	bl	a5a8 <printk>
    8e88:	eb00069e 	bl	a908 <clean_reboot>
    8e8c:	0000bb2c 	.word	0x0000bb2c
    8e90:	0000b8b4 	.word	0x0000b8b4
    8e94:	0000b8bc 	.word	0x0000b8bc
    8e98:	0000ba58 	.word	0x0000ba58
    8e9c:	0000ba68 	.word	0x0000ba68
    8ea0:	0000bbb4 	.word	0x0000bbb4
    8ea4:	0000b8f8 	.word	0x0000b8f8
    8ea8:	0000b900 	.word	0x0000b900

00008eac <mmu_mprotect>:
    8eac:	e52de004 	push	{lr}		; (str lr, [sp, #-4]!)
    8eb0:	e24dd00c 	sub	sp, sp, #12, 0
    8eb4:	e3530003 	cmp	r3, #3, 0
    8eb8:	8a000003 	bhi	8ecc <mmu_mprotect+0x20>
    8ebc:	eb0001ad 	bl	9578 <staff_mmu_mprotect>
    8ec0:	eb0004a7 	bl	a164 <staff_mmu_sync_pte_mods>
    8ec4:	e28dd00c 	add	sp, sp, #12, 0
    8ec8:	e49df004 	pop	{pc}		; (ldr pc, [sp], #4)
    8ecc:	e59f3020 	ldr	r3, [pc, #32]	; 8ef4 <mmu_mprotect+0x48>
    8ed0:	e58d3004 	str	r3, [sp, #4]
    8ed4:	e59f301c 	ldr	r3, [pc, #28]	; 8ef8 <mmu_mprotect+0x4c>
    8ed8:	e58d3000 	str	r3, [sp]
    8edc:	e3a0307e 	mov	r3, #126, 0	; 0x7e
    8ee0:	e59f2014 	ldr	r2, [pc, #20]	; 8efc <mmu_mprotect+0x50>
    8ee4:	e59f1014 	ldr	r1, [pc, #20]	; 8f00 <mmu_mprotect+0x54>
    8ee8:	e59f0014 	ldr	r0, [pc, #20]	; 8f04 <mmu_mprotect+0x58>
    8eec:	eb0005ad 	bl	a5a8 <printk>
    8ef0:	eb000684 	bl	a908 <clean_reboot>
    8ef4:	0000ba74 	.word	0x0000ba74
    8ef8:	0000ba88 	.word	0x0000ba88
    8efc:	0000bbc8 	.word	0x0000bbc8
    8f00:	0000b8f8 	.word	0x0000b8f8
    8f04:	0000b900 	.word	0x0000b900

00008f08 <mmu_init>:
    8f08:	e52de004 	push	{lr}		; (str lr, [sp, #-4]!)
    8f0c:	e24dd00c 	sub	sp, sp, #12, 0
    8f10:	eb0004a6 	bl	a1b0 <staff_mmu_reset>
    8f14:	e59f3018 	ldr	r3, [pc, #24]	; 8f34 <mmu_init+0x2c>
    8f18:	e58d3000 	str	r3, [sp]
    8f1c:	e3a03094 	mov	r3, #148, 0	; 0x94
    8f20:	e59f2010 	ldr	r2, [pc, #16]	; 8f38 <mmu_init+0x30>
    8f24:	e59f1010 	ldr	r1, [pc, #16]	; 8f3c <mmu_init+0x34>
    8f28:	e59f0010 	ldr	r0, [pc, #16]	; 8f40 <mmu_init+0x38>
    8f2c:	eb00059d 	bl	a5a8 <printk>
    8f30:	eb000674 	bl	a908 <clean_reboot>
    8f34:	0000bab4 	.word	0x0000bab4
    8f38:	0000bbd8 	.word	0x0000bbd8
    8f3c:	0000b8f8 	.word	0x0000b8f8
    8f40:	0000ba98 	.word	0x0000ba98

00008f44 <mmu_map_section>:
    8f44:	e92d4030 	push	{r4, r5, lr}
    8f48:	e24dd014 	sub	sp, sp, #20, 0
    8f4c:	e353000f 	cmp	r3, #15, 0
    8f50:	8a000017 	bhi	8fb4 <mmu_map_section+0x70>
    8f54:	e1a05000 	mov	r5, r0
    8f58:	e3c104ff 	bic	r0, r1, #-16777216	; 0xff000000
    8f5c:	e3c0060f 	bic	r0, r0, #15728640	; 0xf00000
    8f60:	e3500000 	cmp	r0, #0, 0
    8f64:	1a00001a 	bne	8fd4 <mmu_map_section+0x90>
    8f68:	e3c204ff 	bic	r0, r2, #-16777216	; 0xff000000
    8f6c:	e3c0060f 	bic	r0, r0, #15728640	; 0xf00000
    8f70:	e3500000 	cmp	r0, #0, 0
    8f74:	1a000020 	bne	8ffc <mmu_map_section+0xb8>
    8f78:	e1a00005 	mov	r0, r5
    8f7c:	eb0001a5 	bl	9618 <staff_mmu_map_section>
    8f80:	e1a04000 	mov	r4, r0
    8f84:	ebfffe08 	bl	87ac <fld_print>
    8f88:	e5942000 	ldr	r2, [r4]
    8f8c:	e1a01005 	mov	r1, r5
    8f90:	e59f008c 	ldr	r0, [pc, #140]	; 9024 <mmu_map_section+0xe0>
    8f94:	eb000583 	bl	a5a8 <printk>
    8f98:	e3a02004 	mov	r2, #4, 0
    8f9c:	e1a01004 	mov	r1, r4
    8fa0:	e59f0080 	ldr	r0, [pc, #128]	; 9028 <mmu_map_section+0xe4>
    8fa4:	ebfffd2f 	bl	8468 <hash_print>
    8fa8:	e1a00004 	mov	r0, r4
    8fac:	e28dd014 	add	sp, sp, #20, 0
    8fb0:	e8bd8030 	pop	{r4, r5, pc}
    8fb4:	e59f3070 	ldr	r3, [pc, #112]	; 902c <mmu_map_section+0xe8>
    8fb8:	e58d3000 	str	r3, [sp]
    8fbc:	e3a030b1 	mov	r3, #177, 0	; 0xb1
    8fc0:	e59f2068 	ldr	r2, [pc, #104]	; 9030 <mmu_map_section+0xec>
    8fc4:	e59f1068 	ldr	r1, [pc, #104]	; 9034 <mmu_map_section+0xf0>
    8fc8:	e59f0068 	ldr	r0, [pc, #104]	; 9038 <mmu_map_section+0xf4>
    8fcc:	eb000575 	bl	a5a8 <printk>
    8fd0:	eb00064c 	bl	a908 <clean_reboot>
    8fd4:	e58d0008 	str	r0, [sp, #8]
    8fd8:	e3a03014 	mov	r3, #20, 0
    8fdc:	e58d3004 	str	r3, [sp, #4]
    8fe0:	e58d1000 	str	r1, [sp]
    8fe4:	e3a0309b 	mov	r3, #155, 0	; 0x9b
    8fe8:	e59f204c 	ldr	r2, [pc, #76]	; 903c <mmu_map_section+0xf8>
    8fec:	e59f104c 	ldr	r1, [pc, #76]	; 9040 <mmu_map_section+0xfc>
    8ff0:	e59f004c 	ldr	r0, [pc, #76]	; 9044 <mmu_map_section+0x100>
    8ff4:	eb00056b 	bl	a5a8 <printk>
    8ff8:	eb000642 	bl	a908 <clean_reboot>
    8ffc:	e58d0008 	str	r0, [sp, #8]
    9000:	e3a03014 	mov	r3, #20, 0
    9004:	e58d3004 	str	r3, [sp, #4]
    9008:	e58d2000 	str	r2, [sp]
    900c:	e3a0309b 	mov	r3, #155, 0	; 0x9b
    9010:	e59f2024 	ldr	r2, [pc, #36]	; 903c <mmu_map_section+0xf8>
    9014:	e59f1024 	ldr	r1, [pc, #36]	; 9040 <mmu_map_section+0xfc>
    9018:	e59f0024 	ldr	r0, [pc, #36]	; 9044 <mmu_map_section+0x100>
    901c:	eb000561 	bl	a5a8 <printk>
    9020:	eb000638 	bl	a908 <clean_reboot>
    9024:	0000baec 	.word	0x0000baec
    9028:	0000bb00 	.word	0x0000bb00
    902c:	0000ba4c 	.word	0x0000ba4c
    9030:	0000bbe4 	.word	0x0000bbe4
    9034:	0000b8f8 	.word	0x0000b8f8
    9038:	0000b39c 	.word	0x0000b39c
    903c:	0000bb2c 	.word	0x0000bb2c
    9040:	0000b8b4 	.word	0x0000b8b4
    9044:	0000b8bc 	.word	0x0000b8bc

00009048 <domain_access_ctrl_get>:
    9048:	e92d4010 	push	{r4, lr}
    904c:	eb000295 	bl	9aa8 <staff_domain_access_ctrl_get>
    9050:	e8bd8010 	pop	{r4, pc}

00009054 <domain_access_ctrl_set>:
    9054:	e92d4010 	push	{r4, lr}
    9058:	e24dd008 	sub	sp, sp, #8, 0
    905c:	e1a04000 	mov	r4, r0
    9060:	eb000292 	bl	9ab0 <staff_domain_access_ctrl_set>
    9064:	ebfffff7 	bl	9048 <domain_access_ctrl_get>
    9068:	e1500004 	cmp	r0, r4
    906c:	1a000001 	bne	9078 <domain_access_ctrl_set+0x24>
    9070:	e28dd008 	add	sp, sp, #8, 0
    9074:	e8bd8010 	pop	{r4, pc}
    9078:	e59f3018 	ldr	r3, [pc, #24]	; 9098 <domain_access_ctrl_set+0x44>
    907c:	e58d3000 	str	r3, [sp]
    9080:	e3a030cf 	mov	r3, #207, 0	; 0xcf
    9084:	e59f2010 	ldr	r2, [pc, #16]	; 909c <domain_access_ctrl_set+0x48>
    9088:	e59f1010 	ldr	r1, [pc, #16]	; 90a0 <domain_access_ctrl_set+0x4c>
    908c:	e59f0010 	ldr	r0, [pc, #16]	; 90a4 <domain_access_ctrl_set+0x50>
    9090:	eb000544 	bl	a5a8 <printk>
    9094:	eb00061b 	bl	a908 <clean_reboot>
    9098:	0000bb0c 	.word	0x0000bb0c
    909c:	0000bbf4 	.word	0x0000bbf4
    90a0:	0000b8f8 	.word	0x0000b8f8
    90a4:	0000b39c 	.word	0x0000b39c

000090a8 <vm_ident_mmu_on>:
    90a8:	e52de004 	push	{lr}		; (str lr, [sp, #-4]!)
    90ac:	e24dd00c 	sub	sp, sp, #12, 0
    90b0:	e1a02000 	mov	r2, r0
    90b4:	e3a01001 	mov	r1, #1, 0
    90b8:	e59f0038 	ldr	r0, [pc, #56]	; 90f8 <vm_ident_mmu_on+0x50>
    90bc:	eb00027e 	bl	9abc <staff_set_procid_ttbr0>
    90c0:	eb000263 	bl	9a54 <staff_mmu_enable>
    90c4:	ebfffe3a 	bl	89b4 <mmu_is_enabled>
    90c8:	e3500000 	cmp	r0, #0, 0
    90cc:	0a000001 	beq	90d8 <vm_ident_mmu_on+0x30>
    90d0:	e28dd00c 	add	sp, sp, #12, 0
    90d4:	e49df004 	pop	{pc}		; (ldr pc, [sp], #4)
    90d8:	e59f301c 	ldr	r3, [pc, #28]	; 90fc <vm_ident_mmu_on+0x54>
    90dc:	e58d3000 	str	r3, [sp]
    90e0:	e3a0304c 	mov	r3, #76, 0	; 0x4c
    90e4:	e59f2014 	ldr	r2, [pc, #20]	; 9100 <vm_ident_mmu_on+0x58>
    90e8:	e59f1014 	ldr	r1, [pc, #20]	; 9104 <vm_ident_mmu_on+0x5c>
    90ec:	e59f0014 	ldr	r0, [pc, #20]	; 9108 <vm_ident_mmu_on+0x60>
    90f0:	eb00052c 	bl	a5a8 <printk>
    90f4:	eb000603 	bl	a908 <clean_reboot>
    90f8:	0000140e 	.word	0x0000140e
    90fc:	0000b3cc 	.word	0x0000b3cc
    9100:	0000bd1c 	.word	0x0000bd1c
    9104:	0000bc0c 	.word	0x0000bc0c
    9108:	0000b39c 	.word	0x0000b39c

0000910c <vm_ident_mmu_init>:
    910c:	e92d4070 	push	{r4, r5, r6, lr}
    9110:	e24dd008 	sub	sp, sp, #8, 0
    9114:	e1a06000 	mov	r6, r0
    9118:	eb000216 	bl	9978 <staff_mmu_init>
    911c:	ebfffe24 	bl	89b4 <mmu_is_enabled>
    9120:	e2505000 	subs	r5, r0, #0, 0
    9124:	1a00003c 	bne	921c <vm_ident_mmu_init+0x110>
    9128:	e3a00a01 	mov	r0, #4096	; 0x1000
    912c:	ebfffe4f 	bl	8a70 <mmu_pt_alloc>
    9130:	e1a04000 	mov	r4, r0
    9134:	e3500601 	cmp	r0, #1048576	; 0x100000
    9138:	1a00003f 	bne	923c <vm_ident_mmu_init+0x130>
    913c:	e3a03001 	mov	r3, #1, 0
    9140:	e3a02000 	mov	r2, #0, 0
    9144:	e1a01002 	mov	r1, r2
    9148:	eb000132 	bl	9618 <staff_mmu_map_section>
    914c:	e3a03001 	mov	r3, #1, 0
    9150:	e3a02601 	mov	r2, #1048576	; 0x100000
    9154:	e1a01002 	mov	r1, r2
    9158:	e1a00004 	mov	r0, r4
    915c:	eb00012d 	bl	9618 <staff_mmu_map_section>
    9160:	e3a03001 	mov	r3, #1, 0
    9164:	e3a02202 	mov	r2, #536870912	; 0x20000000
    9168:	e1a01002 	mov	r1, r2
    916c:	e1a00004 	mov	r0, r4
    9170:	eb000128 	bl	9618 <staff_mmu_map_section>
    9174:	e59f1148 	ldr	r1, [pc, #328]	; 92c4 <vm_ident_mmu_init+0x1b8>
    9178:	e3a03001 	mov	r3, #1, 0
    917c:	e1a02001 	mov	r2, r1
    9180:	e1a00004 	mov	r0, r4
    9184:	eb000123 	bl	9618 <staff_mmu_map_section>
    9188:	e59f1138 	ldr	r1, [pc, #312]	; 92c8 <vm_ident_mmu_init+0x1bc>
    918c:	e3a03001 	mov	r3, #1, 0
    9190:	e1a02001 	mov	r2, r1
    9194:	e1a00004 	mov	r0, r4
    9198:	eb00011e 	bl	9618 <staff_mmu_map_section>
    919c:	e3a03001 	mov	r3, #1, 0
    91a0:	e3a0267f 	mov	r2, #133169152	; 0x7f00000
    91a4:	e1a01002 	mov	r1, r2
    91a8:	e1a00004 	mov	r0, r4
    91ac:	eb000119 	bl	9618 <staff_mmu_map_section>
    91b0:	e3a03001 	mov	r3, #1, 0
    91b4:	e3a0268f 	mov	r2, #149946368	; 0x8f00000
    91b8:	e1a01002 	mov	r1, r2
    91bc:	e1a00004 	mov	r0, r4
    91c0:	eb000114 	bl	9618 <staff_mmu_map_section>
    91c4:	e59f3100 	ldr	r3, [pc, #256]	; 92cc <vm_ident_mmu_init+0x1c0>
    91c8:	e313001f 	tst	r3, #31, 0
    91cc:	03a05001 	moveq	r5, #1, 0
    91d0:	e3550000 	cmp	r5, #0, 0
    91d4:	0a000020 	beq	925c <vm_ident_mmu_init+0x150>
    91d8:	ee1c3f10 	mrc	15, 0, r3, cr12, cr0, {0}
    91dc:	e3530000 	cmp	r3, #0, 0
    91e0:	1a000025 	bne	927c <vm_ident_mmu_init+0x170>
    91e4:	e59f30e0 	ldr	r3, [pc, #224]	; 92cc <vm_ident_mmu_init+0x1c0>
    91e8:	ee0c3f10 	mcr	15, 0, r3, cr12, cr0, {0}
    91ec:	e3a02000 	mov	r2, #0, 0
    91f0:	ee072f95 	mcr	15, 0, r2, cr7, cr5, {4}
    91f4:	ee1c2f10 	mrc	15, 0, r2, cr12, cr0, {0}
    91f8:	e1520003 	cmp	r2, r3
    91fc:	1a000025 	bne	9298 <vm_ident_mmu_init+0x18c>
    9200:	e3a00004 	mov	r0, #4, 0
    9204:	eb000229 	bl	9ab0 <staff_domain_access_ctrl_set>
    9208:	e3560000 	cmp	r6, #0, 0
    920c:	1a000029 	bne	92b8 <vm_ident_mmu_init+0x1ac>
    9210:	e1a00004 	mov	r0, r4
    9214:	e28dd008 	add	sp, sp, #8, 0
    9218:	e8bd8070 	pop	{r4, r5, r6, pc}
    921c:	e59f30ac 	ldr	r3, [pc, #172]	; 92d0 <vm_ident_mmu_init+0x1c4>
    9220:	e58d3000 	str	r3, [sp]
    9224:	e3a03019 	mov	r3, #25, 0
    9228:	e59f20a4 	ldr	r2, [pc, #164]	; 92d4 <vm_ident_mmu_init+0x1c8>
    922c:	e59f10a4 	ldr	r1, [pc, #164]	; 92d8 <vm_ident_mmu_init+0x1cc>
    9230:	e59f00a4 	ldr	r0, [pc, #164]	; 92dc <vm_ident_mmu_init+0x1d0>
    9234:	eb0004db 	bl	a5a8 <printk>
    9238:	eb0005b2 	bl	a908 <clean_reboot>
    923c:	e59f309c 	ldr	r3, [pc, #156]	; 92e0 <vm_ident_mmu_init+0x1d4>
    9240:	e58d3000 	str	r3, [sp]
    9244:	e3a0301d 	mov	r3, #29, 0
    9248:	e59f2084 	ldr	r2, [pc, #132]	; 92d4 <vm_ident_mmu_init+0x1c8>
    924c:	e59f1084 	ldr	r1, [pc, #132]	; 92d8 <vm_ident_mmu_init+0x1cc>
    9250:	e59f0084 	ldr	r0, [pc, #132]	; 92dc <vm_ident_mmu_init+0x1d0>
    9254:	eb0004d3 	bl	a5a8 <printk>
    9258:	eb0005aa 	bl	a908 <clean_reboot>
    925c:	e59f3068 	ldr	r3, [pc, #104]	; 92cc <vm_ident_mmu_init+0x1c0>
    9260:	e58d3000 	str	r3, [sp]
    9264:	e3a03028 	mov	r3, #40, 0	; 0x28
    9268:	e59f2074 	ldr	r2, [pc, #116]	; 92e4 <vm_ident_mmu_init+0x1d8>
    926c:	e59f1074 	ldr	r1, [pc, #116]	; 92e8 <vm_ident_mmu_init+0x1dc>
    9270:	e59f0074 	ldr	r0, [pc, #116]	; 92ec <vm_ident_mmu_init+0x1e0>
    9274:	eb0004cb 	bl	a5a8 <printk>
    9278:	eb0005a2 	bl	a908 <clean_reboot>
    927c:	e58d3000 	str	r3, [sp]
    9280:	e3a0302c 	mov	r3, #44, 0	; 0x2c
    9284:	e59f2058 	ldr	r2, [pc, #88]	; 92e4 <vm_ident_mmu_init+0x1d8>
    9288:	e59f1058 	ldr	r1, [pc, #88]	; 92e8 <vm_ident_mmu_init+0x1dc>
    928c:	e59f005c 	ldr	r0, [pc, #92]	; 92f0 <vm_ident_mmu_init+0x1e4>
    9290:	eb0004c4 	bl	a5a8 <printk>
    9294:	eb00059b 	bl	a908 <clean_reboot>
    9298:	e58d2004 	str	r2, [sp, #4]
    929c:	e58d3000 	str	r3, [sp]
    92a0:	e3a03031 	mov	r3, #49, 0	; 0x31
    92a4:	e59f2038 	ldr	r2, [pc, #56]	; 92e4 <vm_ident_mmu_init+0x1d8>
    92a8:	e59f1038 	ldr	r1, [pc, #56]	; 92e8 <vm_ident_mmu_init+0x1dc>
    92ac:	e59f0040 	ldr	r0, [pc, #64]	; 92f4 <vm_ident_mmu_init+0x1e8>
    92b0:	eb0004bc 	bl	a5a8 <printk>
    92b4:	eb000593 	bl	a908 <clean_reboot>
    92b8:	e1a00004 	mov	r0, r4
    92bc:	ebffff79 	bl	90a8 <vm_ident_mmu_on>
    92c0:	eaffffd2 	b	9210 <vm_ident_mmu_init+0x104>
    92c4:	20100000 	.word	0x20100000
    92c8:	20200000 	.word	0x20200000
    92cc:	0000a4c0 	.word	0x0000a4c0
    92d0:	0000bc20 	.word	0x0000bc20
    92d4:	0000bd2c 	.word	0x0000bd2c
    92d8:	0000bc0c 	.word	0x0000bc0c
    92dc:	0000b39c 	.word	0x0000b39c
    92e0:	0000bc34 	.word	0x0000bc34
    92e4:	0000bd40 	.word	0x0000bd40
    92e8:	0000bc4c 	.word	0x0000bc4c
    92ec:	0000bc90 	.word	0x0000bc90
    92f0:	0000bcb8 	.word	0x0000bcb8
    92f4:	0000bcf0 	.word	0x0000bcf0

000092f8 <vm_ident_mmu_off>:
    92f8:	e52de004 	push	{lr}		; (str lr, [sp, #-4]!)
    92fc:	e24dd00c 	sub	sp, sp, #12, 0
    9300:	eb0001be 	bl	9a00 <staff_mmu_disable>
    9304:	ebfffdaa 	bl	89b4 <mmu_is_enabled>
    9308:	e3500000 	cmp	r0, #0, 0
    930c:	1a000001 	bne	9318 <vm_ident_mmu_off+0x20>
    9310:	e28dd00c 	add	sp, sp, #12, 0
    9314:	e49df004 	pop	{pc}		; (ldr pc, [sp], #4)
    9318:	e59f3018 	ldr	r3, [pc, #24]	; 9338 <vm_ident_mmu_off+0x40>
    931c:	e58d3000 	str	r3, [sp]
    9320:	e3a03051 	mov	r3, #81, 0	; 0x51
    9324:	e59f2010 	ldr	r2, [pc, #16]	; 933c <vm_ident_mmu_off+0x44>
    9328:	e59f1010 	ldr	r1, [pc, #16]	; 9340 <vm_ident_mmu_off+0x48>
    932c:	e59f0010 	ldr	r0, [pc, #16]	; 9344 <vm_ident_mmu_off+0x4c>
    9330:	eb00049c 	bl	a5a8 <printk>
    9334:	eb000573 	bl	a908 <clean_reboot>
    9338:	0000bc20 	.word	0x0000bc20
    933c:	0000bd50 	.word	0x0000bd50
    9340:	0000bc0c 	.word	0x0000bc0c
    9344:	0000b39c 	.word	0x0000b39c

00009348 <_mmu_disable_set>:
    9348:	e52de004 	push	{lr}		; (str lr, [sp, #-4]!)
    934c:	e24dd00c 	sub	sp, sp, #12, 0
    9350:	e3100001 	tst	r0, #1, 0
    9354:	1a000005 	bne	9370 <_mmu_disable_set+0x28>
    9358:	e6ef3070 	uxtb	r3, r0
    935c:	e3130004 	tst	r3, #4, 0
    9360:	1a00000a 	bne	9390 <_mmu_disable_set+0x48>
    9364:	eb0003c4 	bl	a27c <staff_mmu_disable_set_asm>
    9368:	e28dd00c 	add	sp, sp, #12, 0
    936c:	e49df004 	pop	{pc}		; (ldr pc, [sp], #4)
    9370:	e59f3038 	ldr	r3, [pc, #56]	; 93b0 <_mmu_disable_set+0x68>
    9374:	e58d3000 	str	r3, [sp]
    9378:	e3a030b2 	mov	r3, #178, 0	; 0xb2
    937c:	e59f2030 	ldr	r2, [pc, #48]	; 93b4 <_mmu_disable_set+0x6c>
    9380:	e59f1030 	ldr	r1, [pc, #48]	; 93b8 <_mmu_disable_set+0x70>
    9384:	e59f0030 	ldr	r0, [pc, #48]	; 93bc <_mmu_disable_set+0x74>
    9388:	eb000486 	bl	a5a8 <printk>
    938c:	eb00055d 	bl	a908 <clean_reboot>
    9390:	e59f3028 	ldr	r3, [pc, #40]	; 93c0 <_mmu_disable_set+0x78>
    9394:	e58d3000 	str	r3, [sp]
    9398:	e3a030b3 	mov	r3, #179, 0	; 0xb3
    939c:	e59f2010 	ldr	r2, [pc, #16]	; 93b4 <_mmu_disable_set+0x6c>
    93a0:	e59f1010 	ldr	r1, [pc, #16]	; 93b8 <_mmu_disable_set+0x70>
    93a4:	e59f0010 	ldr	r0, [pc, #16]	; 93bc <_mmu_disable_set+0x74>
    93a8:	eb00047e 	bl	a5a8 <printk>
    93ac:	eb000555 	bl	a908 <clean_reboot>
    93b0:	0000b9e4 	.word	0x0000b9e4
    93b4:	0000bdc8 	.word	0x0000bdc8
    93b8:	0000bd64 	.word	0x0000bd64
    93bc:	0000b39c 	.word	0x0000b39c
    93c0:	0000b9f4 	.word	0x0000b9f4

000093c4 <_mmu_enable_set>:
    93c4:	e52de004 	push	{lr}		; (str lr, [sp, #-4]!)
    93c8:	e24dd00c 	sub	sp, sp, #12, 0
    93cc:	e3100001 	tst	r0, #1, 0
    93d0:	0a000002 	beq	93e0 <_mmu_enable_set+0x1c>
    93d4:	eb00038e 	bl	a214 <staff_mmu_enable_set_asm>
    93d8:	e28dd00c 	add	sp, sp, #12, 0
    93dc:	e49df004 	pop	{pc}		; (ldr pc, [sp], #4)
    93e0:	e59f3018 	ldr	r3, [pc, #24]	; 9400 <_mmu_enable_set+0x3c>
    93e4:	e58d3000 	str	r3, [sp]
    93e8:	e3a030c1 	mov	r3, #193, 0	; 0xc1
    93ec:	e59f2010 	ldr	r2, [pc, #16]	; 9404 <_mmu_enable_set+0x40>
    93f0:	e59f1010 	ldr	r1, [pc, #16]	; 9408 <_mmu_enable_set+0x44>
    93f4:	e59f0010 	ldr	r0, [pc, #16]	; 940c <_mmu_enable_set+0x48>
    93f8:	eb00046a 	bl	a5a8 <printk>
    93fc:	eb000541 	bl	a908 <clean_reboot>
    9400:	0000ba08 	.word	0x0000ba08
    9404:	0000bddc 	.word	0x0000bddc
    9408:	0000bd64 	.word	0x0000bd64
    940c:	0000b39c 	.word	0x0000b39c

00009410 <fld_set_base_addr>:
    9410:	e52de004 	push	{lr}		; (str lr, [sp, #-4]!)
    9414:	e24dd014 	sub	sp, sp, #20, 0
    9418:	e3c134ff 	bic	r3, r1, #-16777216	; 0xff000000
    941c:	e3c3360f 	bic	r3, r3, #15728640	; 0xf00000
    9420:	e3530000 	cmp	r3, #0, 0
    9424:	1a00000b 	bne	9458 <fld_set_base_addr+0x48>
    9428:	e1d030b2 	ldrh	r3, [r0, #2]
    942c:	e59f206c 	ldr	r2, [pc, #108]	; 94a0 <fld_set_base_addr+0x90>
    9430:	e002ca21 	and	ip, r2, r1, lsr #20
    9434:	e1c33202 	bic	r3, r3, r2, lsl #4
    9438:	e183320c 	orr	r3, r3, ip, lsl #4
    943c:	e1c030b2 	strh	r3, [r0, #2]
    9440:	e1a03a21 	lsr	r3, r1, #20
    9444:	e1a03a03 	lsl	r3, r3, #20
    9448:	e1530001 	cmp	r3, r1
    944c:	1a00000b 	bne	9480 <fld_set_base_addr+0x70>
    9450:	e28dd014 	add	sp, sp, #20, 0
    9454:	e49df004 	pop	{pc}		; (ldr pc, [sp], #4)
    9458:	e58d3008 	str	r3, [sp, #8]
    945c:	e3a03014 	mov	r3, #20, 0
    9460:	e58d3004 	str	r3, [sp, #4]
    9464:	e58d1000 	str	r1, [sp]
    9468:	e3a030a0 	mov	r3, #160, 0	; 0xa0
    946c:	e59f2030 	ldr	r2, [pc, #48]	; 94a4 <fld_set_base_addr+0x94>
    9470:	e59f1030 	ldr	r1, [pc, #48]	; 94a8 <fld_set_base_addr+0x98>
    9474:	e59f0030 	ldr	r0, [pc, #48]	; 94ac <fld_set_base_addr+0x9c>
    9478:	eb00044a 	bl	a5a8 <printk>
    947c:	eb000521 	bl	a908 <clean_reboot>
    9480:	e59f3028 	ldr	r3, [pc, #40]	; 94b0 <fld_set_base_addr+0xa0>
    9484:	e58d3000 	str	r3, [sp]
    9488:	e3a0304b 	mov	r3, #75, 0	; 0x4b
    948c:	e59f2020 	ldr	r2, [pc, #32]	; 94b4 <fld_set_base_addr+0xa4>
    9490:	e59f1020 	ldr	r1, [pc, #32]	; 94b8 <fld_set_base_addr+0xa8>
    9494:	e59f0020 	ldr	r0, [pc, #32]	; 94bc <fld_set_base_addr+0xac>
    9498:	eb000442 	bl	a5a8 <printk>
    949c:	eb000519 	bl	a908 <clean_reboot>
    94a0:	00000fff 	.word	0x00000fff
    94a4:	0000bdec 	.word	0x0000bdec
    94a8:	0000b8b4 	.word	0x0000b8b4
    94ac:	0000b8bc 	.word	0x0000b8bc
    94b0:	0000bd70 	.word	0x0000bd70
    94b4:	0000bdf8 	.word	0x0000bdf8
    94b8:	0000bd64 	.word	0x0000bd64
    94bc:	0000b39c 	.word	0x0000b39c
    94c0:	e92d4010 	push	{r4, lr}
    94c4:	eb0002b1 	bl	9f90 <cp15_ctrl_reg1_rd>
    94c8:	e2000001 	and	r0, r0, #1, 0
    94cc:	e8bd8010 	pop	{r4, pc}

000094d0 <staff_mmu_lookup_section>:
    94d0:	e52de004 	push	{lr}		; (str lr, [sp, #-4]!)
    94d4:	e24dd014 	sub	sp, sp, #20, 0
    94d8:	e3c124ff 	bic	r2, r1, #-16777216	; 0xff000000
    94dc:	e3c2260f 	bic	r2, r2, #15728640	; 0xf00000
    94e0:	e3520000 	cmp	r2, #0, 0
    94e4:	1a000007 	bne	9508 <staff_mmu_lookup_section+0x38>
    94e8:	e1a03000 	mov	r3, r0
    94ec:	e1a01a21 	lsr	r1, r1, #20
    94f0:	e0800101 	add	r0, r0, r1, lsl #2
    94f4:	e7d33101 	ldrb	r3, [r3, r1, lsl #2]
    94f8:	e3130003 	tst	r3, #3, 0
    94fc:	0a00000b 	beq	9530 <staff_mmu_lookup_section+0x60>
    9500:	e28dd014 	add	sp, sp, #20, 0
    9504:	e49df004 	pop	{pc}		; (ldr pc, [sp], #4)
    9508:	e58d2008 	str	r2, [sp, #8]
    950c:	e3a03014 	mov	r3, #20, 0
    9510:	e58d3004 	str	r3, [sp, #4]
    9514:	e58d1000 	str	r1, [sp]
    9518:	e3a030a0 	mov	r3, #160, 0	; 0xa0
    951c:	e59f2034 	ldr	r2, [pc, #52]	; 9558 <staff_mmu_lookup_section+0x88>
    9520:	e59f1034 	ldr	r1, [pc, #52]	; 955c <staff_mmu_lookup_section+0x8c>
    9524:	e59f0034 	ldr	r0, [pc, #52]	; 9560 <staff_mmu_lookup_section+0x90>
    9528:	eb00041e 	bl	a5a8 <printk>
    952c:	eb0004f5 	bl	a908 <clean_reboot>
    9530:	e59f302c 	ldr	r3, [pc, #44]	; 9564 <staff_mmu_lookup_section+0x94>
    9534:	e58d3004 	str	r3, [sp, #4]
    9538:	e59f3028 	ldr	r3, [pc, #40]	; 9568 <staff_mmu_lookup_section+0x98>
    953c:	e58d3000 	str	r3, [sp]
    9540:	e3a03025 	mov	r3, #37, 0	; 0x25
    9544:	e59f2020 	ldr	r2, [pc, #32]	; 956c <staff_mmu_lookup_section+0x9c>
    9548:	e59f1020 	ldr	r1, [pc, #32]	; 9570 <staff_mmu_lookup_section+0xa0>
    954c:	e59f0020 	ldr	r0, [pc, #32]	; 9574 <staff_mmu_lookup_section+0xa4>
    9550:	eb000414 	bl	a5a8 <printk>
    9554:	eb0004eb 	bl	a908 <clean_reboot>
    9558:	0000bdec 	.word	0x0000bdec
    955c:	0000b8b4 	.word	0x0000b8b4
    9560:	0000b8bc 	.word	0x0000b8bc
    9564:	0000ba58 	.word	0x0000ba58
    9568:	0000ba68 	.word	0x0000ba68
    956c:	0000be0c 	.word	0x0000be0c
    9570:	0000bd64 	.word	0x0000bd64
    9574:	0000b900 	.word	0x0000b900

00009578 <staff_mmu_mprotect>:
    9578:	e92d41f0 	push	{r4, r5, r6, r7, r8, lr}
    957c:	e24dd008 	sub	sp, sp, #8, 0
    9580:	e3530003 	cmp	r3, #3, 0
    9584:	8a000006 	bhi	95a4 <staff_mmu_mprotect+0x2c>
    9588:	e1a08000 	mov	r8, r0
    958c:	e1a06002 	mov	r6, r2
    9590:	e1a07003 	mov	r7, r3
    9594:	e1a05aa1 	lsr	r5, r1, #21
    9598:	e1a05a85 	lsl	r5, r5, #21
    959c:	e3a04000 	mov	r4, #0, 0
    95a0:	ea000012 	b	95f0 <staff_mmu_mprotect+0x78>
    95a4:	e59f3058 	ldr	r3, [pc, #88]	; 9604 <staff_mmu_mprotect+0x8c>
    95a8:	e58d3004 	str	r3, [sp, #4]
    95ac:	e59f3054 	ldr	r3, [pc, #84]	; 9608 <staff_mmu_mprotect+0x90>
    95b0:	e58d3000 	str	r3, [sp]
    95b4:	e3a0302c 	mov	r3, #44, 0	; 0x2c
    95b8:	e59f204c 	ldr	r2, [pc, #76]	; 960c <staff_mmu_mprotect+0x94>
    95bc:	e59f104c 	ldr	r1, [pc, #76]	; 9610 <staff_mmu_mprotect+0x98>
    95c0:	e59f004c 	ldr	r0, [pc, #76]	; 9614 <staff_mmu_mprotect+0x9c>
    95c4:	eb0003f7 	bl	a5a8 <printk>
    95c8:	eb0004ce 	bl	a908 <clean_reboot>
    95cc:	e1a01005 	mov	r1, r5
    95d0:	e1a00008 	mov	r0, r8
    95d4:	ebffffbd 	bl	94d0 <staff_mmu_lookup_section>
    95d8:	e5d0e001 	ldrb	lr, [r0, #1]
    95dc:	e207c003 	and	ip, r7, #3, 0
    95e0:	e3cee00c 	bic	lr, lr, #12, 0
    95e4:	e18ec10c 	orr	ip, lr, ip, lsl #2
    95e8:	e5c0c001 	strb	ip, [r0, #1]
    95ec:	e2844001 	add	r4, r4, #1, 0
    95f0:	e1540006 	cmp	r4, r6
    95f4:	3afffff4 	bcc	95cc <staff_mmu_mprotect+0x54>
    95f8:	eb0002d9 	bl	a164 <staff_mmu_sync_pte_mods>
    95fc:	e28dd008 	add	sp, sp, #8, 0
    9600:	e8bd81f0 	pop	{r4, r5, r6, r7, r8, pc}
    9604:	0000ba74 	.word	0x0000ba74
    9608:	0000ba88 	.word	0x0000ba88
    960c:	0000be28 	.word	0x0000be28
    9610:	0000bd64 	.word	0x0000bd64
    9614:	0000b900 	.word	0x0000b900

00009618 <staff_mmu_map_section>:
    9618:	e92d43f0 	push	{r4, r5, r6, r7, r8, r9, lr}
    961c:	e24dd014 	sub	sp, sp, #20, 0
    9620:	e353000f 	cmp	r3, #15, 0
    9624:	8a000036 	bhi	9704 <staff_mmu_map_section+0xec>
    9628:	e1a06000 	mov	r6, r0
    962c:	e1a08002 	mov	r8, r2
    9630:	e1a07003 	mov	r7, r3
    9634:	e3c134ff 	bic	r3, r1, #-16777216	; 0xff000000
    9638:	e3c3360f 	bic	r3, r3, #15728640	; 0xf00000
    963c:	e3530000 	cmp	r3, #0, 0
    9640:	1a000037 	bne	9724 <staff_mmu_map_section+0x10c>
    9644:	e3c234ff 	bic	r3, r2, #-16777216	; 0xff000000
    9648:	e3c3360f 	bic	r3, r3, #15728640	; 0xf00000
    964c:	e3530000 	cmp	r3, #0, 0
    9650:	1a00003d 	bne	974c <staff_mmu_map_section+0x134>
    9654:	e1a04a21 	lsr	r4, r1, #20
    9658:	e1a09104 	lsl	r9, r4, #2
    965c:	e0805104 	add	r5, r0, r4, lsl #2
    9660:	e7d03104 	ldrb	r3, [r0, r4, lsl #2]
    9664:	e3130003 	tst	r3, #3, 0
    9668:	1a000041 	bne	9774 <staff_mmu_map_section+0x15c>
    966c:	ebfffc44 	bl	8784 <fld_mk>
    9670:	e7860104 	str	r0, [r6, r4, lsl #2]
    9674:	e5d53002 	ldrb	r3, [r5, #2]
    9678:	e3c33002 	bic	r3, r3, #2, 0
    967c:	e5c53002 	strb	r3, [r5, #2]
    9680:	e5d53001 	ldrb	r3, [r5, #1]
    9684:	e3c33080 	bic	r3, r3, #128, 0	; 0x80
    9688:	e5c53001 	strb	r3, [r5, #1]
    968c:	e6ef3073 	uxtb	r3, r3
    9690:	e3c33070 	bic	r3, r3, #112, 0	; 0x70
    9694:	e5c53001 	strb	r3, [r5, #1]
    9698:	e6ef3073 	uxtb	r3, r3
    969c:	e383300c 	orr	r3, r3, #12, 0
    96a0:	e5c53001 	strb	r3, [r5, #1]
    96a4:	e19620b9 	ldrh	r2, [r6, r9]
    96a8:	e207300f 	and	r3, r7, #15, 0
    96ac:	e3c27e1e 	bic	r7, r2, #480	; 0x1e0
    96b0:	e1877283 	orr	r7, r7, r3, lsl #5
    96b4:	e18670b9 	strh	r7, [r6, r9]
    96b8:	e7d63104 	ldrb	r3, [r6, r4, lsl #2]
    96bc:	e3c33010 	bic	r3, r3, #16, 0
    96c0:	e7c63104 	strb	r3, [r6, r4, lsl #2]
    96c4:	e1a01008 	mov	r1, r8
    96c8:	e1a00005 	mov	r0, r5
    96cc:	ebffff4f 	bl	9410 <fld_set_base_addr>
    96d0:	e1a00005 	mov	r0, r5
    96d4:	ebfffc34 	bl	87ac <fld_print>
    96d8:	e7962104 	ldr	r2, [r6, r4, lsl #2]
    96dc:	e1a01006 	mov	r1, r6
    96e0:	e59f00b4 	ldr	r0, [pc, #180]	; 979c <staff_mmu_map_section+0x184>
    96e4:	eb0003af 	bl	a5a8 <printk>
    96e8:	e3a02004 	mov	r2, #4, 0
    96ec:	e1a01005 	mov	r1, r5
    96f0:	e59f00a8 	ldr	r0, [pc, #168]	; 97a0 <staff_mmu_map_section+0x188>
    96f4:	ebfffb5b 	bl	8468 <hash_print>
    96f8:	e1a00005 	mov	r0, r5
    96fc:	e28dd014 	add	sp, sp, #20, 0
    9700:	e8bd83f0 	pop	{r4, r5, r6, r7, r8, r9, pc}
    9704:	e59f3098 	ldr	r3, [pc, #152]	; 97a4 <staff_mmu_map_section+0x18c>
    9708:	e58d3000 	str	r3, [sp]
    970c:	e3a03056 	mov	r3, #86, 0	; 0x56
    9710:	e59f2090 	ldr	r2, [pc, #144]	; 97a8 <staff_mmu_map_section+0x190>
    9714:	e59f1090 	ldr	r1, [pc, #144]	; 97ac <staff_mmu_map_section+0x194>
    9718:	e59f0090 	ldr	r0, [pc, #144]	; 97b0 <staff_mmu_map_section+0x198>
    971c:	eb0003a1 	bl	a5a8 <printk>
    9720:	eb000478 	bl	a908 <clean_reboot>
    9724:	e58d3008 	str	r3, [sp, #8]
    9728:	e3a03014 	mov	r3, #20, 0
    972c:	e58d3004 	str	r3, [sp, #4]
    9730:	e58d1000 	str	r1, [sp]
    9734:	e3a030a0 	mov	r3, #160, 0	; 0xa0
    9738:	e59f2074 	ldr	r2, [pc, #116]	; 97b4 <staff_mmu_map_section+0x19c>
    973c:	e59f1074 	ldr	r1, [pc, #116]	; 97b8 <staff_mmu_map_section+0x1a0>
    9740:	e59f0074 	ldr	r0, [pc, #116]	; 97bc <staff_mmu_map_section+0x1a4>
    9744:	eb000397 	bl	a5a8 <printk>
    9748:	eb00046e 	bl	a908 <clean_reboot>
    974c:	e58d3008 	str	r3, [sp, #8]
    9750:	e3a03014 	mov	r3, #20, 0
    9754:	e58d3004 	str	r3, [sp, #4]
    9758:	e58d2000 	str	r2, [sp]
    975c:	e3a030a0 	mov	r3, #160, 0	; 0xa0
    9760:	e59f204c 	ldr	r2, [pc, #76]	; 97b4 <staff_mmu_map_section+0x19c>
    9764:	e59f104c 	ldr	r1, [pc, #76]	; 97b8 <staff_mmu_map_section+0x1a0>
    9768:	e59f004c 	ldr	r0, [pc, #76]	; 97bc <staff_mmu_map_section+0x1a4>
    976c:	eb00038d 	bl	a5a8 <printk>
    9770:	eb000464 	bl	a908 <clean_reboot>
    9774:	e59f3044 	ldr	r3, [pc, #68]	; 97c0 <staff_mmu_map_section+0x1a8>
    9778:	e58d3004 	str	r3, [sp, #4]
    977c:	e59f3040 	ldr	r3, [pc, #64]	; 97c4 <staff_mmu_map_section+0x1ac>
    9780:	e58d3000 	str	r3, [sp]
    9784:	e3a0305c 	mov	r3, #92, 0	; 0x5c
    9788:	e59f2018 	ldr	r2, [pc, #24]	; 97a8 <staff_mmu_map_section+0x190>
    978c:	e59f1018 	ldr	r1, [pc, #24]	; 97ac <staff_mmu_map_section+0x194>
    9790:	e59f0030 	ldr	r0, [pc, #48]	; 97c8 <staff_mmu_map_section+0x1b0>
    9794:	eb000383 	bl	a5a8 <printk>
    9798:	eb00045a 	bl	a908 <clean_reboot>
    979c:	0000baec 	.word	0x0000baec
    97a0:	0000bb00 	.word	0x0000bb00
    97a4:	0000ba4c 	.word	0x0000ba4c
    97a8:	0000be3c 	.word	0x0000be3c
    97ac:	0000bd64 	.word	0x0000bd64
    97b0:	0000b39c 	.word	0x0000b39c
    97b4:	0000bdec 	.word	0x0000bdec
    97b8:	0000b8b4 	.word	0x0000b8b4
    97bc:	0000b8bc 	.word	0x0000b8bc
    97c0:	0000bd94 	.word	0x0000bd94
    97c4:	0000bda0 	.word	0x0000bda0
    97c8:	0000b900 	.word	0x0000b900

000097cc <staff_mmu_map_sections>:
    97cc:	e92d43f0 	push	{r4, r5, r6, r7, r8, r9, lr}
    97d0:	e24dd014 	sub	sp, sp, #20, 0
    97d4:	e59d9030 	ldr	r9, [sp, #48]	; 0x30
    97d8:	e359000f 	cmp	r9, #15, 0
    97dc:	8a000015 	bhi	9838 <staff_mmu_map_sections+0x6c>
    97e0:	e1a08000 	mov	r8, r0
    97e4:	e1a06001 	mov	r6, r1
    97e8:	e1a05002 	mov	r5, r2
    97ec:	e1a07003 	mov	r7, r3
    97f0:	e3c134ff 	bic	r3, r1, #-16777216	; 0xff000000
    97f4:	e3c3360f 	bic	r3, r3, #15728640	; 0xf00000
    97f8:	e3530000 	cmp	r3, #0, 0
    97fc:	1a000015 	bne	9858 <staff_mmu_map_sections+0x8c>
    9800:	e3c244ff 	bic	r4, r2, #-16777216	; 0xff000000
    9804:	e3c4460f 	bic	r4, r4, #15728640	; 0xf00000
    9808:	e3540000 	cmp	r4, #0, 0
    980c:	0a000023 	beq	98a0 <staff_mmu_map_sections+0xd4>
    9810:	e58d4008 	str	r4, [sp, #8]
    9814:	e3a03014 	mov	r3, #20, 0
    9818:	e58d3004 	str	r3, [sp, #4]
    981c:	e58d2000 	str	r2, [sp]
    9820:	e3a030a0 	mov	r3, #160, 0	; 0xa0
    9824:	e59f2084 	ldr	r2, [pc, #132]	; 98b0 <staff_mmu_map_sections+0xe4>
    9828:	e59f1084 	ldr	r1, [pc, #132]	; 98b4 <staff_mmu_map_sections+0xe8>
    982c:	e59f0084 	ldr	r0, [pc, #132]	; 98b8 <staff_mmu_map_sections+0xec>
    9830:	eb00035c 	bl	a5a8 <printk>
    9834:	eb000433 	bl	a908 <clean_reboot>
    9838:	e59f307c 	ldr	r3, [pc, #124]	; 98bc <staff_mmu_map_sections+0xf0>
    983c:	e58d3000 	str	r3, [sp]
    9840:	e3a0307a 	mov	r3, #122, 0	; 0x7a
    9844:	e59f2074 	ldr	r2, [pc, #116]	; 98c0 <staff_mmu_map_sections+0xf4>
    9848:	e59f1074 	ldr	r1, [pc, #116]	; 98c4 <staff_mmu_map_sections+0xf8>
    984c:	e59f0074 	ldr	r0, [pc, #116]	; 98c8 <staff_mmu_map_sections+0xfc>
    9850:	eb000354 	bl	a5a8 <printk>
    9854:	eb00042b 	bl	a908 <clean_reboot>
    9858:	e58d3008 	str	r3, [sp, #8]
    985c:	e3a03014 	mov	r3, #20, 0
    9860:	e58d3004 	str	r3, [sp, #4]
    9864:	e58d1000 	str	r1, [sp]
    9868:	e3a030a0 	mov	r3, #160, 0	; 0xa0
    986c:	e59f203c 	ldr	r2, [pc, #60]	; 98b0 <staff_mmu_map_sections+0xe4>
    9870:	e59f103c 	ldr	r1, [pc, #60]	; 98b4 <staff_mmu_map_sections+0xe8>
    9874:	e59f003c 	ldr	r0, [pc, #60]	; 98b8 <staff_mmu_map_sections+0xec>
    9878:	eb00034a 	bl	a5a8 <printk>
    987c:	eb000421 	bl	a908 <clean_reboot>
    9880:	e1a03009 	mov	r3, r9
    9884:	e1a02005 	mov	r2, r5
    9888:	e1a01006 	mov	r1, r6
    988c:	e1a00008 	mov	r0, r8
    9890:	ebffff60 	bl	9618 <staff_mmu_map_section>
    9894:	e2866601 	add	r6, r6, #1048576	; 0x100000
    9898:	e2855601 	add	r5, r5, #1048576	; 0x100000
    989c:	e2844001 	add	r4, r4, #1, 0
    98a0:	e1540007 	cmp	r4, r7
    98a4:	3afffff5 	bcc	9880 <staff_mmu_map_sections+0xb4>
    98a8:	e28dd014 	add	sp, sp, #20, 0
    98ac:	e8bd83f0 	pop	{r4, r5, r6, r7, r8, r9, pc}
    98b0:	0000bdec 	.word	0x0000bdec
    98b4:	0000b8b4 	.word	0x0000b8b4
    98b8:	0000b8bc 	.word	0x0000b8bc
    98bc:	0000ba4c 	.word	0x0000ba4c
    98c0:	0000be54 	.word	0x0000be54
    98c4:	0000bd64 	.word	0x0000bd64
    98c8:	0000b39c 	.word	0x0000b39c

000098cc <staff_mmu_pt_alloc>:
    98cc:	e52de004 	push	{lr}		; (str lr, [sp, #-4]!)
    98d0:	e24dd014 	sub	sp, sp, #20, 0
    98d4:	e3500a01 	cmp	r0, #4096	; 0x1000
    98d8:	1a00000a 	bne	9908 <staff_mmu_pt_alloc+0x3c>
    98dc:	e3a01901 	mov	r1, #16384	; 0x4000
    98e0:	e1a00001 	mov	r0, r1
    98e4:	eb0005e3 	bl	b078 <kmalloc_aligned>
    98e8:	e1a03900 	lsl	r3, r0, #18
    98ec:	e1a03923 	lsr	r3, r3, #18
    98f0:	e3530000 	cmp	r3, #0, 0
    98f4:	1a00000d 	bne	9930 <staff_mmu_pt_alloc+0x64>
    98f8:	e3a01901 	mov	r1, #16384	; 0x4000
    98fc:	ebfffc30 	bl	89c4 <mmu_pt_init>
    9900:	e28dd014 	add	sp, sp, #20, 0
    9904:	e49df004 	pop	{pc}		; (ldr pc, [sp], #4)
    9908:	e59f3048 	ldr	r3, [pc, #72]	; 9958 <staff_mmu_pt_alloc+0x8c>
    990c:	e58d3004 	str	r3, [sp, #4]
    9910:	e59f3044 	ldr	r3, [pc, #68]	; 995c <staff_mmu_pt_alloc+0x90>
    9914:	e58d3000 	str	r3, [sp]
    9918:	e3a0308e 	mov	r3, #142, 0	; 0x8e
    991c:	e59f203c 	ldr	r2, [pc, #60]	; 9960 <staff_mmu_pt_alloc+0x94>
    9920:	e59f103c 	ldr	r1, [pc, #60]	; 9964 <staff_mmu_pt_alloc+0x98>
    9924:	e59f003c 	ldr	r0, [pc, #60]	; 9968 <staff_mmu_pt_alloc+0x9c>
    9928:	eb00031e 	bl	a5a8 <printk>
    992c:	eb0003f5 	bl	a908 <clean_reboot>
    9930:	e58d3008 	str	r3, [sp, #8]
    9934:	e3a0300e 	mov	r3, #14, 0
    9938:	e58d3004 	str	r3, [sp, #4]
    993c:	e58d0000 	str	r0, [sp]
    9940:	e3a030a0 	mov	r3, #160, 0	; 0xa0
    9944:	e59f2020 	ldr	r2, [pc, #32]	; 996c <staff_mmu_pt_alloc+0xa0>
    9948:	e59f1020 	ldr	r1, [pc, #32]	; 9970 <staff_mmu_pt_alloc+0xa4>
    994c:	e59f0020 	ldr	r0, [pc, #32]	; 9974 <staff_mmu_pt_alloc+0xa8>
    9950:	eb000314 	bl	a5a8 <printk>
    9954:	eb0003eb 	bl	a908 <clean_reboot>
    9958:	0000b95c 	.word	0x0000b95c
    995c:	0000b994 	.word	0x0000b994
    9960:	0000be6c 	.word	0x0000be6c
    9964:	0000bd64 	.word	0x0000bd64
    9968:	0000b900 	.word	0x0000b900
    996c:	0000bdec 	.word	0x0000bdec
    9970:	0000b8b4 	.word	0x0000b8b4
    9974:	0000b8bc 	.word	0x0000b8bc

00009978 <staff_mmu_init>:
    9978:	e52de004 	push	{lr}		; (str lr, [sp, #-4]!)
    997c:	e24dd00c 	sub	sp, sp, #12, 0
    9980:	eb00020a 	bl	a1b0 <staff_mmu_reset>
    9984:	eb000181 	bl	9f90 <cp15_ctrl_reg1_rd>
    9988:	e3800502 	orr	r0, r0, #8388608	; 0x800000
    998c:	eb0001ed 	bl	a148 <cp15_ctrl_reg1_wr>
    9990:	eb00017e 	bl	9f90 <cp15_ctrl_reg1_rd>
    9994:	e3100502 	tst	r0, #8388608	; 0x800000
    9998:	0a000003 	beq	99ac <staff_mmu_init+0x34>
    999c:	e3100001 	tst	r0, #1, 0
    99a0:	1a000009 	bne	99cc <staff_mmu_init+0x54>
    99a4:	e28dd00c 	add	sp, sp, #12, 0
    99a8:	e49df004 	pop	{pc}		; (ldr pc, [sp], #4)
    99ac:	e59f3038 	ldr	r3, [pc, #56]	; 99ec <staff_mmu_init+0x74>
    99b0:	e58d3000 	str	r3, [sp]
    99b4:	e3a030a6 	mov	r3, #166, 0	; 0xa6
    99b8:	e59f2030 	ldr	r2, [pc, #48]	; 99f0 <staff_mmu_init+0x78>
    99bc:	e59f1030 	ldr	r1, [pc, #48]	; 99f4 <staff_mmu_init+0x7c>
    99c0:	e59f0030 	ldr	r0, [pc, #48]	; 99f8 <staff_mmu_init+0x80>
    99c4:	eb0002f7 	bl	a5a8 <printk>
    99c8:	eb0003ce 	bl	a908 <clean_reboot>
    99cc:	e59f3028 	ldr	r3, [pc, #40]	; 99fc <staff_mmu_init+0x84>
    99d0:	e58d3000 	str	r3, [sp]
    99d4:	e3a030a7 	mov	r3, #167, 0	; 0xa7
    99d8:	e59f2010 	ldr	r2, [pc, #16]	; 99f0 <staff_mmu_init+0x78>
    99dc:	e59f1010 	ldr	r1, [pc, #16]	; 99f4 <staff_mmu_init+0x7c>
    99e0:	e59f0010 	ldr	r0, [pc, #16]	; 99f8 <staff_mmu_init+0x80>
    99e4:	eb0002ef 	bl	a5a8 <printk>
    99e8:	eb0003c6 	bl	a908 <clean_reboot>
    99ec:	0000bdac 	.word	0x0000bdac
    99f0:	0000be80 	.word	0x0000be80
    99f4:	0000bd64 	.word	0x0000bd64
    99f8:	0000b39c 	.word	0x0000b39c
    99fc:	0000bdb8 	.word	0x0000bdb8

00009a00 <staff_mmu_disable>:
    9a00:	e52de004 	push	{lr}		; (str lr, [sp, #-4]!)
    9a04:	e24dd00c 	sub	sp, sp, #12, 0
    9a08:	eb000160 	bl	9f90 <cp15_ctrl_reg1_rd>
    9a0c:	e3100001 	tst	r0, #1, 0
    9a10:	0a000003 	beq	9a24 <staff_mmu_disable+0x24>
    9a14:	e3c00005 	bic	r0, r0, #5, 0
    9a18:	ebfffe4a 	bl	9348 <_mmu_disable_set>
    9a1c:	e28dd00c 	add	sp, sp, #12, 0
    9a20:	e49df004 	pop	{pc}		; (ldr pc, [sp], #4)
    9a24:	e59f3018 	ldr	r3, [pc, #24]	; 9a44 <staff_mmu_disable+0x44>
    9a28:	e58d3000 	str	r3, [sp]
    9a2c:	e3a030b9 	mov	r3, #185, 0	; 0xb9
    9a30:	e59f2010 	ldr	r2, [pc, #16]	; 9a48 <staff_mmu_disable+0x48>
    9a34:	e59f1010 	ldr	r1, [pc, #16]	; 9a4c <staff_mmu_disable+0x4c>
    9a38:	e59f0010 	ldr	r0, [pc, #16]	; 9a50 <staff_mmu_disable+0x50>
    9a3c:	eb0002d9 	bl	a5a8 <printk>
    9a40:	eb0003b0 	bl	a908 <clean_reboot>
    9a44:	0000ba08 	.word	0x0000ba08
    9a48:	0000be90 	.word	0x0000be90
    9a4c:	0000bd64 	.word	0x0000bd64
    9a50:	0000b39c 	.word	0x0000b39c

00009a54 <staff_mmu_enable>:
    9a54:	e52de004 	push	{lr}		; (str lr, [sp, #-4]!)
    9a58:	e24dd00c 	sub	sp, sp, #12, 0
    9a5c:	eb00014b 	bl	9f90 <cp15_ctrl_reg1_rd>
    9a60:	e3100001 	tst	r0, #1, 0
    9a64:	1a000003 	bne	9a78 <staff_mmu_enable+0x24>
    9a68:	e3800001 	orr	r0, r0, #1, 0
    9a6c:	ebfffe54 	bl	93c4 <_mmu_enable_set>
    9a70:	e28dd00c 	add	sp, sp, #12, 0
    9a74:	e49df004 	pop	{pc}		; (ldr pc, [sp], #4)
    9a78:	e59f3018 	ldr	r3, [pc, #24]	; 9a98 <staff_mmu_enable+0x44>
    9a7c:	e58d3000 	str	r3, [sp]
    9a80:	e3a030c6 	mov	r3, #198, 0	; 0xc6
    9a84:	e59f2010 	ldr	r2, [pc, #16]	; 9a9c <staff_mmu_enable+0x48>
    9a88:	e59f1010 	ldr	r1, [pc, #16]	; 9aa0 <staff_mmu_enable+0x4c>
    9a8c:	e59f0010 	ldr	r0, [pc, #16]	; 9aa4 <staff_mmu_enable+0x50>
    9a90:	eb0002c4 	bl	a5a8 <printk>
    9a94:	eb00039b 	bl	a908 <clean_reboot>
    9a98:	0000b9e4 	.word	0x0000b9e4
    9a9c:	0000bea4 	.word	0x0000bea4
    9aa0:	0000bd64 	.word	0x0000bd64
    9aa4:	0000b39c 	.word	0x0000b39c

00009aa8 <staff_domain_access_ctrl_get>:
    9aa8:	ee130f10 	mrc	15, 0, r0, cr3, cr0, {0}
    9aac:	e12fff1e 	bx	lr

00009ab0 <staff_domain_access_ctrl_set>:
    9ab0:	e92d4010 	push	{r4, lr}
    9ab4:	eb000208 	bl	a2dc <staff_cp15_domain_ctrl_wr>
    9ab8:	e8bd8010 	pop	{r4, pc}

00009abc <staff_set_procid_ttbr0>:
    9abc:	e52de004 	push	{lr}		; (str lr, [sp, #-4]!)
    9ac0:	e24dd00c 	sub	sp, sp, #12, 0
    9ac4:	e1a03001 	mov	r3, r1
    9ac8:	e1a01002 	mov	r1, r2
    9acc:	e1b02c20 	lsrs	r2, r0, #24
    9ad0:	1a000008 	bne	9af8 <staff_set_procid_ttbr0+0x3c>
    9ad4:	e3500040 	cmp	r0, #64, 0	; 0x40
    9ad8:	9a00000e 	bls	9b18 <staff_set_procid_ttbr0+0x5c>
    9adc:	e2432001 	sub	r2, r3, #1, 0
    9ae0:	e352003e 	cmp	r2, #62, 0	; 0x3e
    9ae4:	8a000013 	bhi	9b38 <staff_set_procid_ttbr0+0x7c>
    9ae8:	e1830400 	orr	r0, r3, r0, lsl #8
    9aec:	eb0001a4 	bl	a184 <staff_cp15_set_procid_ttbr0>
    9af0:	e28dd00c 	add	sp, sp, #12, 0
    9af4:	e49df004 	pop	{pc}		; (ldr pc, [sp], #4)
    9af8:	e59f3058 	ldr	r3, [pc, #88]	; 9b58 <staff_set_procid_ttbr0+0x9c>
    9afc:	e58d3000 	str	r3, [sp]
    9b00:	e3a030d7 	mov	r3, #215, 0	; 0xd7
    9b04:	e59f2050 	ldr	r2, [pc, #80]	; 9b5c <staff_set_procid_ttbr0+0xa0>
    9b08:	e59f1050 	ldr	r1, [pc, #80]	; 9b60 <staff_set_procid_ttbr0+0xa4>
    9b0c:	e59f0050 	ldr	r0, [pc, #80]	; 9b64 <staff_set_procid_ttbr0+0xa8>
    9b10:	eb0002a4 	bl	a5a8 <printk>
    9b14:	eb00037b 	bl	a908 <clean_reboot>
    9b18:	e59f3048 	ldr	r3, [pc, #72]	; 9b68 <staff_set_procid_ttbr0+0xac>
    9b1c:	e58d3000 	str	r3, [sp]
    9b20:	e3a030d8 	mov	r3, #216, 0	; 0xd8
    9b24:	e59f2030 	ldr	r2, [pc, #48]	; 9b5c <staff_set_procid_ttbr0+0xa0>
    9b28:	e59f1030 	ldr	r1, [pc, #48]	; 9b60 <staff_set_procid_ttbr0+0xa4>
    9b2c:	e59f0030 	ldr	r0, [pc, #48]	; 9b64 <staff_set_procid_ttbr0+0xa8>
    9b30:	eb00029c 	bl	a5a8 <printk>
    9b34:	eb000373 	bl	a908 <clean_reboot>
    9b38:	e59f302c 	ldr	r3, [pc, #44]	; 9b6c <staff_set_procid_ttbr0+0xb0>
    9b3c:	e58d3000 	str	r3, [sp]
    9b40:	e3a030d9 	mov	r3, #217, 0	; 0xd9
    9b44:	e59f2010 	ldr	r2, [pc, #16]	; 9b5c <staff_set_procid_ttbr0+0xa0>
    9b48:	e59f1010 	ldr	r1, [pc, #16]	; 9b60 <staff_set_procid_ttbr0+0xa4>
    9b4c:	e59f0010 	ldr	r0, [pc, #16]	; 9b64 <staff_set_procid_ttbr0+0xa8>
    9b50:	eb000294 	bl	a5a8 <printk>
    9b54:	eb00036b 	bl	a908 <clean_reboot>
    9b58:	0000ba18 	.word	0x0000ba18
    9b5c:	0000beb8 	.word	0x0000beb8
    9b60:	0000bd64 	.word	0x0000bd64
    9b64:	0000b39c 	.word	0x0000b39c
    9b68:	0000ba2c 	.word	0x0000ba2c
    9b6c:	0000ba38 	.word	0x0000ba38

00009b70 <mmu_set_prefetch>:
    9b70:	e59f300c 	ldr	r3, [pc, #12]	; 9b84 <mmu_set_prefetch+0x14>
    9b74:	e5932000 	ldr	r2, [r3]
    9b78:	e5830000 	str	r0, [r3]
    9b7c:	e1a00002 	mov	r0, r2
    9b80:	e12fff1e 	bx	lr
    9b84:	0000c670 	.word	0x0000c670

00009b88 <mmu_set_data_abort>:
    9b88:	e59f300c 	ldr	r3, [pc, #12]	; 9b9c <mmu_set_data_abort+0x14>
    9b8c:	e5932004 	ldr	r2, [r3, #4]
    9b90:	e5830004 	str	r0, [r3, #4]
    9b94:	e1a00002 	mov	r0, r2
    9b98:	e12fff1e 	bx	lr
    9b9c:	0000c670 	.word	0x0000c670

00009ba0 <reboot_callout>:
    9ba0:	e92d4010 	push	{r4, lr}
    9ba4:	ebfffb82 	bl	89b4 <mmu_is_enabled>
    9ba8:	e3500000 	cmp	r0, #0, 0
    9bac:	08bd8010 	popeq	{r4, pc}
    9bb0:	ebfffbf7 	bl	8b94 <mmu_disable>
    9bb4:	e8bd8010 	pop	{r4, pc}

00009bb8 <prefetch_abort_vector>:
    9bb8:	e92d4010 	push	{r4, lr}
    9bbc:	e24dd008 	sub	sp, sp, #8, 0
    9bc0:	ee153f30 	mrc	15, 0, r3, cr5, cr0, {1}
    9bc4:	e203100f 	and	r1, r3, #15, 0
    9bc8:	e2033b01 	and	r3, r3, #1024	; 0x400
    9bcc:	e1831001 	orr	r1, r3, r1
    9bd0:	ee164f50 	mrc	15, 0, r4, cr6, cr0, {2}
    9bd4:	e59f309c 	ldr	r3, [pc, #156]	; 9c78 <prefetch_abort_vector+0xc0>
    9bd8:	e5933000 	ldr	r3, [r3]
    9bdc:	e3530000 	cmp	r3, #0, 0
    9be0:	0a000003 	beq	9bf4 <prefetch_abort_vector+0x3c>
    9be4:	e1a00004 	mov	r0, r4
    9be8:	e12fff33 	blx	r3
    9bec:	e28dd008 	add	sp, sp, #8, 0
    9bf0:	e8bd8010 	pop	{r4, pc}
    9bf4:	e3510005 	cmp	r1, #5, 0
    9bf8:	0a000006 	beq	9c18 <prefetch_abort_vector+0x60>
    9bfc:	e351000d 	cmp	r1, #13, 0
    9c00:	1a000014 	bne	9c58 <prefetch_abort_vector+0xa0>
    9c04:	e1a02001 	mov	r2, r1
    9c08:	e1a01004 	mov	r1, r4
    9c0c:	e59f0068 	ldr	r0, [pc, #104]	; 9c7c <prefetch_abort_vector+0xc4>
    9c10:	eb000264 	bl	a5a8 <printk>
    9c14:	ea000003 	b	9c28 <prefetch_abort_vector+0x70>
    9c18:	e1a02001 	mov	r2, r1
    9c1c:	e1a01004 	mov	r1, r4
    9c20:	e59f0058 	ldr	r0, [pc, #88]	; 9c80 <prefetch_abort_vector+0xc8>
    9c24:	eb00025f 	bl	a5a8 <printk>
    9c28:	e59f3048 	ldr	r3, [pc, #72]	; 9c78 <prefetch_abort_vector+0xc0>
    9c2c:	e593301c 	ldr	r3, [r3, #28]
    9c30:	e1530004 	cmp	r3, r4
    9c34:	0a00000e 	beq	9c74 <prefetch_abort_vector+0xbc>
    9c38:	e59f3044 	ldr	r3, [pc, #68]	; 9c84 <prefetch_abort_vector+0xcc>
    9c3c:	e58d3000 	str	r3, [sp]
    9c40:	e3a03033 	mov	r3, #51, 0	; 0x33
    9c44:	e59f203c 	ldr	r2, [pc, #60]	; 9c88 <prefetch_abort_vector+0xd0>
    9c48:	e59f103c 	ldr	r1, [pc, #60]	; 9c8c <prefetch_abort_vector+0xd4>
    9c4c:	e59f003c 	ldr	r0, [pc, #60]	; 9c90 <prefetch_abort_vector+0xd8>
    9c50:	eb000254 	bl	a5a8 <printk>
    9c54:	eb00032b 	bl	a908 <clean_reboot>
    9c58:	e58d1000 	str	r1, [sp]
    9c5c:	e3a0302e 	mov	r3, #46, 0	; 0x2e
    9c60:	e59f2020 	ldr	r2, [pc, #32]	; 9c88 <prefetch_abort_vector+0xd0>
    9c64:	e59f1020 	ldr	r1, [pc, #32]	; 9c8c <prefetch_abort_vector+0xd4>
    9c68:	e59f0024 	ldr	r0, [pc, #36]	; 9c94 <prefetch_abort_vector+0xdc>
    9c6c:	eb00024d 	bl	a5a8 <printk>
    9c70:	eb000324 	bl	a908 <clean_reboot>
    9c74:	eb000323 	bl	a908 <clean_reboot>
    9c78:	0000c670 	.word	0x0000c670
    9c7c:	0000bf08 	.word	0x0000bf08
    9c80:	0000bed0 	.word	0x0000bed0
    9c84:	0000bf88 	.word	0x0000bf88
    9c88:	0000c190 	.word	0x0000c190
    9c8c:	0000bf4c 	.word	0x0000bf4c
    9c90:	0000b39c 	.word	0x0000b39c
    9c94:	0000bf60 	.word	0x0000bf60

00009c98 <data_abort_vector>:
    9c98:	e92d4030 	push	{r4, r5, lr}
    9c9c:	e24dd00c 	sub	sp, sp, #12, 0
    9ca0:	ee152f10 	mrc	15, 0, r2, cr5, cr0, {0}
    9ca4:	e202400f 	and	r4, r2, #15, 0
    9ca8:	e2022b01 	and	r2, r2, #1024	; 0x400
    9cac:	e1824004 	orr	r4, r2, r4
    9cb0:	ee165f10 	mrc	15, 0, r5, cr6, cr0, {0}
    9cb4:	e59f3234 	ldr	r3, [pc, #564]	; 9ef0 <data_abort_vector+0x258>
    9cb8:	e5933004 	ldr	r3, [r3, #4]
    9cbc:	e3530000 	cmp	r3, #0, 0
    9cc0:	0a000004 	beq	9cd8 <data_abort_vector+0x40>
    9cc4:	e1a01004 	mov	r1, r4
    9cc8:	e1a00005 	mov	r0, r5
    9ccc:	e12fff33 	blx	r3
    9cd0:	e28dd00c 	add	sp, sp, #12, 0
    9cd4:	e8bd8030 	pop	{r4, r5, pc}
    9cd8:	e59f2210 	ldr	r2, [pc, #528]	; 9ef0 <data_abort_vector+0x258>
    9cdc:	e5923018 	ldr	r3, [r2, #24]
    9ce0:	e2833001 	add	r3, r3, #1, 0
    9ce4:	e5823018 	str	r3, [r2, #24]
    9ce8:	e3540005 	cmp	r4, #5, 0
    9cec:	0a000019 	beq	9d58 <data_abort_vector+0xc0>
    9cf0:	e354000d 	cmp	r4, #13, 0
    9cf4:	1a000051 	bne	9e40 <data_abort_vector+0x1a8>
    9cf8:	e59f31f0 	ldr	r3, [pc, #496]	; 9ef0 <data_abort_vector+0x258>
    9cfc:	e593301c 	ldr	r3, [r3, #28]
    9d00:	e1530005 	cmp	r3, r5
    9d04:	1a000034 	bne	9ddc <data_abort_vector+0x144>
    9d08:	ee153f10 	mrc	15, 0, r3, cr5, cr0, {0}
    9d0c:	e3130b02 	tst	r3, #2048	; 0x800
    9d10:	1a00002e 	bne	9dd0 <data_abort_vector+0x138>
    9d14:	e59f11d8 	ldr	r1, [pc, #472]	; 9ef4 <data_abort_vector+0x25c>
    9d18:	e1a03004 	mov	r3, r4
    9d1c:	e1a02005 	mov	r2, r5
    9d20:	e59f01d0 	ldr	r0, [pc, #464]	; 9ef8 <data_abort_vector+0x260>
    9d24:	eb00021f 	bl	a5a8 <printk>
    9d28:	e59f31c0 	ldr	r3, [pc, #448]	; 9ef0 <data_abort_vector+0x258>
    9d2c:	e593301c 	ldr	r3, [r3, #28]
    9d30:	e1530005 	cmp	r3, r5
    9d34:	0a000027 	beq	9dd8 <data_abort_vector+0x140>
    9d38:	e59f31bc 	ldr	r3, [pc, #444]	; 9efc <data_abort_vector+0x264>
    9d3c:	e58d3000 	str	r3, [sp]
    9d40:	e3a0305d 	mov	r3, #93, 0	; 0x5d
    9d44:	e59f21b4 	ldr	r2, [pc, #436]	; 9f00 <data_abort_vector+0x268>
    9d48:	e59f11b4 	ldr	r1, [pc, #436]	; 9f04 <data_abort_vector+0x26c>
    9d4c:	e59f01b4 	ldr	r0, [pc, #436]	; 9f08 <data_abort_vector+0x270>
    9d50:	eb000214 	bl	a5a8 <printk>
    9d54:	eb0002eb 	bl	a908 <clean_reboot>
    9d58:	e1a01005 	mov	r1, r5
    9d5c:	e59f01a8 	ldr	r0, [pc, #424]	; 9f0c <data_abort_vector+0x274>
    9d60:	eb000210 	bl	a5a8 <printk>
    9d64:	e59f3184 	ldr	r3, [pc, #388]	; 9ef0 <data_abort_vector+0x258>
    9d68:	e5933010 	ldr	r3, [r3, #16]
    9d6c:	e1530005 	cmp	r3, r5
    9d70:	0a000039 	beq	9e5c <data_abort_vector+0x1c4>
    9d74:	ee153f10 	mrc	15, 0, r3, cr5, cr0, {0}
    9d78:	e3130b02 	tst	r3, #2048	; 0x800
    9d7c:	1a000010 	bne	9dc4 <data_abort_vector+0x12c>
    9d80:	e59f116c 	ldr	r1, [pc, #364]	; 9ef4 <data_abort_vector+0x25c>
    9d84:	e1a03004 	mov	r3, r4
    9d88:	e1a02005 	mov	r2, r5
    9d8c:	e59f017c 	ldr	r0, [pc, #380]	; 9f10 <data_abort_vector+0x278>
    9d90:	eb000204 	bl	a5a8 <printk>
    9d94:	e59f3154 	ldr	r3, [pc, #340]	; 9ef0 <data_abort_vector+0x258>
    9d98:	e593301c 	ldr	r3, [r3, #28]
    9d9c:	e1530005 	cmp	r3, r5
    9da0:	0a000009 	beq	9dcc <data_abort_vector+0x134>
    9da4:	e59f3150 	ldr	r3, [pc, #336]	; 9efc <data_abort_vector+0x264>
    9da8:	e58d3000 	str	r3, [sp]
    9dac:	e3a03055 	mov	r3, #85, 0	; 0x55
    9db0:	e59f2148 	ldr	r2, [pc, #328]	; 9f00 <data_abort_vector+0x268>
    9db4:	e59f1148 	ldr	r1, [pc, #328]	; 9f04 <data_abort_vector+0x26c>
    9db8:	e59f0148 	ldr	r0, [pc, #328]	; 9f08 <data_abort_vector+0x270>
    9dbc:	eb0001f9 	bl	a5a8 <printk>
    9dc0:	eb0002d0 	bl	a908 <clean_reboot>
    9dc4:	e59f1148 	ldr	r1, [pc, #328]	; 9f14 <data_abort_vector+0x27c>
    9dc8:	eaffffed 	b	9d84 <data_abort_vector+0xec>
    9dcc:	eb0002cd 	bl	a908 <clean_reboot>
    9dd0:	e59f113c 	ldr	r1, [pc, #316]	; 9f14 <data_abort_vector+0x27c>
    9dd4:	eaffffcf 	b	9d18 <data_abort_vector+0x80>
    9dd8:	eb0002ca 	bl	a908 <clean_reboot>
    9ddc:	e1a01005 	mov	r1, r5
    9de0:	e59f0130 	ldr	r0, [pc, #304]	; 9f18 <data_abort_vector+0x280>
    9de4:	eb0001ef 	bl	a5a8 <printk>
    9de8:	e59f4100 	ldr	r4, [pc, #256]	; 9ef0 <data_abort_vector+0x258>
    9dec:	e5940008 	ldr	r0, [r4, #8]
    9df0:	e3a03003 	mov	r3, #3, 0
    9df4:	e3a02001 	mov	r2, #1, 0
    9df8:	e1a01aa5 	lsr	r1, r5, #21
    9dfc:	e1a01a81 	lsl	r1, r1, #21
    9e00:	ebfffc29 	bl	8eac <mmu_mprotect>
    9e04:	e5943010 	ldr	r3, [r4, #16]
    9e08:	e1530005 	cmp	r3, r5
    9e0c:	1a000003 	bne	9e20 <data_abort_vector+0x188>
    9e10:	e1a01005 	mov	r1, r5
    9e14:	e59f0100 	ldr	r0, [pc, #256]	; 9f1c <data_abort_vector+0x284>
    9e18:	eb0001e2 	bl	a5a8 <printk>
    9e1c:	eaffffab 	b	9cd0 <data_abort_vector+0x38>
    9e20:	e59f30f8 	ldr	r3, [pc, #248]	; 9f20 <data_abort_vector+0x288>
    9e24:	e58d3000 	str	r3, [sp]
    9e28:	e3a03063 	mov	r3, #99, 0	; 0x63
    9e2c:	e59f20cc 	ldr	r2, [pc, #204]	; 9f00 <data_abort_vector+0x268>
    9e30:	e59f10cc 	ldr	r1, [pc, #204]	; 9f04 <data_abort_vector+0x26c>
    9e34:	e59f00cc 	ldr	r0, [pc, #204]	; 9f08 <data_abort_vector+0x270>
    9e38:	eb0001da 	bl	a5a8 <printk>
    9e3c:	eb0002b1 	bl	a908 <clean_reboot>
    9e40:	e58d4000 	str	r4, [sp]
    9e44:	e3a03066 	mov	r3, #102, 0	; 0x66
    9e48:	e59f20b0 	ldr	r2, [pc, #176]	; 9f00 <data_abort_vector+0x268>
    9e4c:	e59f10b0 	ldr	r1, [pc, #176]	; 9f04 <data_abort_vector+0x26c>
    9e50:	e59f00cc 	ldr	r0, [pc, #204]	; 9f24 <data_abort_vector+0x28c>
    9e54:	eb0001d3 	bl	a5a8 <printk>
    9e58:	eb0002aa 	bl	a908 <clean_reboot>
    9e5c:	e1a01005 	mov	r1, r5
    9e60:	e59f00c0 	ldr	r0, [pc, #192]	; 9f28 <data_abort_vector+0x290>
    9e64:	eb0001cf 	bl	a5a8 <printk>
    9e68:	e59f3080 	ldr	r3, [pc, #128]	; 9ef0 <data_abort_vector+0x258>
    9e6c:	e593300c 	ldr	r3, [r3, #12]
    9e70:	e0433005 	sub	r3, r3, r5
    9e74:	e3530601 	cmp	r3, #1048576	; 0x100000
    9e78:	2a000012 	bcs	9ec8 <data_abort_vector+0x230>
    9e7c:	e59f406c 	ldr	r4, [pc, #108]	; 9ef0 <data_abort_vector+0x258>
    9e80:	e594200c 	ldr	r2, [r4, #12]
    9e84:	e1a01005 	mov	r1, r5
    9e88:	e59f009c 	ldr	r0, [pc, #156]	; 9f2c <data_abort_vector+0x294>
    9e8c:	eb0001c5 	bl	a5a8 <printk>
    9e90:	e594300c 	ldr	r3, [r4, #12]
    9e94:	e2433601 	sub	r3, r3, #1048576	; 0x100000
    9e98:	e584300c 	str	r3, [r4, #12]
    9e9c:	e5941008 	ldr	r1, [r4, #8]
    9ea0:	e59f0088 	ldr	r0, [pc, #136]	; 9f30 <data_abort_vector+0x298>
    9ea4:	eb0001bf 	bl	a5a8 <printk>
    9ea8:	e5940008 	ldr	r0, [r4, #8]
    9eac:	e594100c 	ldr	r1, [r4, #12]
    9eb0:	e594200c 	ldr	r2, [r4, #12]
    9eb4:	e5943014 	ldr	r3, [r4, #20]
    9eb8:	ebfffc21 	bl	8f44 <mmu_map_section>
    9ebc:	e59f0070 	ldr	r0, [pc, #112]	; 9f34 <data_abort_vector+0x29c>
    9ec0:	eb0001b8 	bl	a5a8 <printk>
    9ec4:	eaffff81 	b	9cd0 <data_abort_vector+0x38>
    9ec8:	e59f3020 	ldr	r3, [pc, #32]	; 9ef0 <data_abort_vector+0x258>
    9ecc:	e593300c 	ldr	r3, [r3, #12]
    9ed0:	e58d3004 	str	r3, [sp, #4]
    9ed4:	e58d5000 	str	r5, [sp]
    9ed8:	e3a03072 	mov	r3, #114, 0	; 0x72
    9edc:	e59f201c 	ldr	r2, [pc, #28]	; 9f00 <data_abort_vector+0x268>
    9ee0:	e59f101c 	ldr	r1, [pc, #28]	; 9f04 <data_abort_vector+0x26c>
    9ee4:	e59f004c 	ldr	r0, [pc, #76]	; 9f38 <data_abort_vector+0x2a0>
    9ee8:	eb0001ae 	bl	a5a8 <printk>
    9eec:	eb000285 	bl	a908 <clean_reboot>
    9ef0:	0000c670 	.word	0x0000c670
    9ef4:	0000bfa8 	.word	0x0000bfa8
    9ef8:	0000c028 	.word	0x0000c028
    9efc:	0000c00c 	.word	0x0000c00c
    9f00:	0000c1a8 	.word	0x0000c1a8
    9f04:	0000bf4c 	.word	0x0000bf4c
    9f08:	0000b39c 	.word	0x0000b39c
    9f0c:	0000bfb0 	.word	0x0000bfb0
    9f10:	0000bfcc 	.word	0x0000bfcc
    9f14:	0000bfa0 	.word	0x0000bfa0
    9f18:	0000c070 	.word	0x0000c070
    9f1c:	0000c0b0 	.word	0x0000c0b0
    9f20:	0000c090 	.word	0x0000c090
    9f24:	0000c0d0 	.word	0x0000c0d0
    9f28:	0000c0f4 	.word	0x0000c0f4
    9f2c:	0000c104 	.word	0x0000c104
    9f30:	0000c134 	.word	0x0000c134
    9f34:	0000c148 	.word	0x0000c148
    9f38:	0000c15c 	.word	0x0000c15c

00009f3c <cp15_sync>:
    9f3c:	e3a02000 	mov	r2, #0, 0
    9f40:	ee072fd5 	mcr	15, 0, r2, cr7, cr5, {6}
    9f44:	ee072f9a 	mcr	15, 0, r2, cr7, cr10, {4}
    9f48:	ee072f95 	mcr	15, 0, r2, cr7, cr5, {4}
    9f4c:	e12fff1e 	bx	lr

00009f50 <cp15_barrier>:
    9f50:	e3a02000 	mov	r2, #0, 0
    9f54:	ee072f9a 	mcr	15, 0, r2, cr7, cr10, {4}
    9f58:	ee072f95 	mcr	15, 0, r2, cr7, cr5, {4}
    9f5c:	e12fff1e 	bx	lr

00009f60 <cp15_ttbr0_rd>:
    9f60:	ee120f10 	mrc	15, 0, r0, cr2, cr0, {0}
    9f64:	e12fff1e 	bx	lr

00009f68 <cp15_ttbr1_rd>:
    9f68:	ee120f30 	mrc	15, 0, r0, cr2, cr0, {1}
    9f6c:	e12fff1e 	bx	lr

00009f70 <cp15_ttbr_ctrl_rd>:
    9f70:	ee120f50 	mrc	15, 0, r0, cr2, cr0, {2}
    9f74:	e12fff1e 	bx	lr

00009f78 <cp15_domain_ctrl_rd>:
    9f78:	ee130f10 	mrc	15, 0, r0, cr3, cr0, {0}
    9f7c:	e12fff1e 	bx	lr

00009f80 <cp15_cache_type_rd>:
    9f80:	ee100f30 	mrc	15, 0, r0, cr0, cr0, {1}
    9f84:	e12fff1e 	bx	lr

00009f88 <cp15_tlb_config_rd>:
    9f88:	ee100f70 	mrc	15, 0, r0, cr0, cr0, {3}
    9f8c:	e12fff1e 	bx	lr

00009f90 <cp15_ctrl_reg1_rd>:
    9f90:	ee110f10 	mrc	15, 0, r0, cr1, cr0, {0}
    9f94:	e12fff1e 	bx	lr

00009f98 <cp15_ctrl_reg1_rd_u32>:
    9f98:	ee110f10 	mrc	15, 0, r0, cr1, cr0, {0}
    9f9c:	e12fff1e 	bx	lr

00009fa0 <cp15_procid_rd>:
    9fa0:	ee1d0f30 	mrc	15, 0, r0, cr13, cr0, {1}
    9fa4:	e12fff1e 	bx	lr

00009fa8 <cp15_dsb>:
    9fa8:	e3a02000 	mov	r2, #0, 0
    9fac:	ee072f9a 	mcr	15, 0, r2, cr7, cr10, {4}
    9fb0:	e12fff1e 	bx	lr

00009fb4 <cp15_dmb>:
    9fb4:	e3a02000 	mov	r2, #0, 0
    9fb8:	ee072fba 	mcr	15, 0, r2, cr7, cr10, {5}
    9fbc:	e12fff1e 	bx	lr

00009fc0 <cp15_prefetch_flush>:
    9fc0:	e3a02000 	mov	r2, #0, 0
    9fc4:	ee072f95 	mcr	15, 0, r2, cr7, cr5, {4}
    9fc8:	e12fff1e 	bx	lr

00009fcc <cp15_btb_flush>:
    9fcc:	e3a02000 	mov	r2, #0, 0
    9fd0:	ee072fd5 	mcr	15, 0, r2, cr7, cr5, {6}
    9fd4:	e12fff1e 	bx	lr

00009fd8 <cp15_caches_inv>:
    9fd8:	e3a00000 	mov	r0, #0, 0
    9fdc:	ee070f15 	mcr	15, 0, r0, cr7, cr5, {0}
    9fe0:	ee070f15 	mcr	15, 0, r0, cr7, cr5, {0}
    9fe4:	ee070f15 	mcr	15, 0, r0, cr7, cr5, {0}
    9fe8:	ee070f15 	mcr	15, 0, r0, cr7, cr5, {0}
    9fec:	e320f000 	nop	{0}
    9ff0:	e320f000 	nop	{0}
    9ff4:	e320f000 	nop	{0}
    9ff8:	e320f000 	nop	{0}
    9ffc:	e320f000 	nop	{0}
    a000:	e320f000 	nop	{0}
    a004:	e320f000 	nop	{0}
    a008:	e320f000 	nop	{0}
    a00c:	e320f000 	nop	{0}
    a010:	e320f000 	nop	{0}
    a014:	e320f000 	nop	{0}
    a018:	ee070f16 	mcr	15, 0, r0, cr7, cr6, {0}
    a01c:	ee070f9a 	mcr	15, 0, r0, cr7, cr10, {4}
    a020:	ee070fd5 	mcr	15, 0, r0, cr7, cr5, {6}
    a024:	ee070f9a 	mcr	15, 0, r0, cr7, cr10, {4}
    a028:	ee070f95 	mcr	15, 0, r0, cr7, cr5, {4}
    a02c:	e12fff1e 	bx	lr

0000a030 <cp15_dcache_clean_inv>:
    a030:	e3a00000 	mov	r0, #0, 0
    a034:	ee070f1e 	mcr	15, 0, r0, cr7, cr14, {0}
    a038:	ee070f9a 	mcr	15, 0, r0, cr7, cr10, {4}
    a03c:	ee070fd5 	mcr	15, 0, r0, cr7, cr5, {6}
    a040:	ee070f9a 	mcr	15, 0, r0, cr7, cr10, {4}
    a044:	ee070f95 	mcr	15, 0, r0, cr7, cr5, {4}
    a048:	e12fff1e 	bx	lr

0000a04c <cp15_icache_inv>:
    a04c:	e3a00000 	mov	r0, #0, 0
    a050:	ee070f15 	mcr	15, 0, r0, cr7, cr5, {0}
    a054:	ee070f15 	mcr	15, 0, r0, cr7, cr5, {0}
    a058:	ee070f15 	mcr	15, 0, r0, cr7, cr5, {0}
    a05c:	ee070f15 	mcr	15, 0, r0, cr7, cr5, {0}
    a060:	e320f000 	nop	{0}
    a064:	e320f000 	nop	{0}
    a068:	e320f000 	nop	{0}
    a06c:	e320f000 	nop	{0}
    a070:	e320f000 	nop	{0}
    a074:	e320f000 	nop	{0}
    a078:	e320f000 	nop	{0}
    a07c:	e320f000 	nop	{0}
    a080:	e320f000 	nop	{0}
    a084:	e320f000 	nop	{0}
    a088:	e320f000 	nop	{0}
    a08c:	ee070f9a 	mcr	15, 0, r0, cr7, cr10, {4}
    a090:	ee070fd5 	mcr	15, 0, r0, cr7, cr5, {6}
    a094:	ee070f9a 	mcr	15, 0, r0, cr7, cr10, {4}
    a098:	ee070f95 	mcr	15, 0, r0, cr7, cr5, {4}
    a09c:	e12fff1e 	bx	lr

0000a0a0 <cp15_itlb_inv>:
    a0a0:	e3a00000 	mov	r0, #0, 0
    a0a4:	ee080f15 	mcr	15, 0, r0, cr8, cr5, {0}
    a0a8:	ee070f9a 	mcr	15, 0, r0, cr7, cr10, {4}
    a0ac:	ee070fd5 	mcr	15, 0, r0, cr7, cr5, {6}
    a0b0:	ee070f9a 	mcr	15, 0, r0, cr7, cr10, {4}
    a0b4:	ee070f95 	mcr	15, 0, r0, cr7, cr5, {4}
    a0b8:	e12fff1e 	bx	lr

0000a0bc <cp15_dtlb_inv>:
    a0bc:	e3a00000 	mov	r0, #0, 0
    a0c0:	ee080f16 	mcr	15, 0, r0, cr8, cr6, {0}
    a0c4:	ee070f9a 	mcr	15, 0, r0, cr7, cr10, {4}
    a0c8:	ee070fd5 	mcr	15, 0, r0, cr7, cr5, {6}
    a0cc:	ee070f9a 	mcr	15, 0, r0, cr7, cr10, {4}
    a0d0:	ee070f95 	mcr	15, 0, r0, cr7, cr5, {4}
    a0d4:	e12fff1e 	bx	lr

0000a0d8 <cp15_tlbs_inv>:
    a0d8:	e3a00000 	mov	r0, #0, 0
    a0dc:	ee080f17 	mcr	15, 0, r0, cr8, cr7, {0}
    a0e0:	ee070f9a 	mcr	15, 0, r0, cr7, cr10, {4}
    a0e4:	ee070fd5 	mcr	15, 0, r0, cr7, cr5, {6}
    a0e8:	ee070f9a 	mcr	15, 0, r0, cr7, cr10, {4}
    a0ec:	ee070f95 	mcr	15, 0, r0, cr7, cr5, {4}
    a0f0:	e12fff1e 	bx	lr

0000a0f4 <cp15_ttbr0_wr>:
    a0f4:	e3a01000 	mov	r1, #0, 0
    a0f8:	ee020f10 	mcr	15, 0, r0, cr2, cr0, {0}
    a0fc:	ee071f9a 	mcr	15, 0, r1, cr7, cr10, {4}
    a100:	ee071fd5 	mcr	15, 0, r1, cr7, cr5, {6}
    a104:	ee071f9a 	mcr	15, 0, r1, cr7, cr10, {4}
    a108:	ee071f95 	mcr	15, 0, r1, cr7, cr5, {4}
    a10c:	e12fff1e 	bx	lr

0000a110 <cp15_ttbr1_wr>:
    a110:	e3a01000 	mov	r1, #0, 0
    a114:	ee020f10 	mcr	15, 0, r0, cr2, cr0, {0}
    a118:	ee071f9a 	mcr	15, 0, r1, cr7, cr10, {4}
    a11c:	ee071fd5 	mcr	15, 0, r1, cr7, cr5, {6}
    a120:	ee071f9a 	mcr	15, 0, r1, cr7, cr10, {4}
    a124:	ee071f95 	mcr	15, 0, r1, cr7, cr5, {4}
    a128:	e12fff1e 	bx	lr

0000a12c <cp15_ttbr_ctrl_wr>:
    a12c:	e3a01000 	mov	r1, #0, 0
    a130:	ee020f50 	mcr	15, 0, r0, cr2, cr0, {2}
    a134:	ee071f9a 	mcr	15, 0, r1, cr7, cr10, {4}
    a138:	ee071fd5 	mcr	15, 0, r1, cr7, cr5, {6}
    a13c:	ee071f9a 	mcr	15, 0, r1, cr7, cr10, {4}
    a140:	ee071f95 	mcr	15, 0, r1, cr7, cr5, {4}
    a144:	e12fff1e 	bx	lr

0000a148 <cp15_ctrl_reg1_wr>:
    a148:	e3a01000 	mov	r1, #0, 0
    a14c:	ee010f10 	mcr	15, 0, r0, cr1, cr0, {0}
    a150:	ee071f9a 	mcr	15, 0, r1, cr7, cr10, {4}
    a154:	ee071fd5 	mcr	15, 0, r1, cr7, cr5, {6}
    a158:	ee071f9a 	mcr	15, 0, r1, cr7, cr10, {4}
    a15c:	ee071f95 	mcr	15, 0, r1, cr7, cr5, {4}
    a160:	e12fff1e 	bx	lr

0000a164 <staff_mmu_sync_pte_mods>:
    a164:	e3a02000 	mov	r2, #0, 0
    a168:	ee072f1e 	mcr	15, 0, r2, cr7, cr14, {0}
    a16c:	ee072f9a 	mcr	15, 0, r2, cr7, cr10, {4}
    a170:	ee082f17 	mcr	15, 0, r2, cr8, cr7, {0}
    a174:	ee072fd5 	mcr	15, 0, r2, cr7, cr5, {6}
    a178:	ee072f9a 	mcr	15, 0, r2, cr7, cr10, {4}
    a17c:	ee072f95 	mcr	15, 0, r2, cr7, cr5, {4}
    a180:	e12fff1e 	bx	lr

0000a184 <staff_cp15_set_procid_ttbr0>:
    a184:	e3a02000 	mov	r2, #0, 0
    a188:	ee0d2f30 	mcr	15, 0, r2, cr13, cr0, {1}
    a18c:	ee072f95 	mcr	15, 0, r2, cr7, cr5, {4}
    a190:	ee021f10 	mcr	15, 0, r1, cr2, cr0, {0}
    a194:	ee022f30 	mcr	15, 0, r2, cr2, cr0, {1}
    a198:	ee072fd5 	mcr	15, 0, r2, cr7, cr5, {6}
    a19c:	ee072f95 	mcr	15, 0, r2, cr7, cr5, {4}
    a1a0:	ee0d0f30 	mcr	15, 0, r0, cr13, cr0, {1}
    a1a4:	ee072fd5 	mcr	15, 0, r2, cr7, cr5, {6}
    a1a8:	ee072f95 	mcr	15, 0, r2, cr7, cr5, {4}
    a1ac:	e12fff1e 	bx	lr

0000a1b0 <staff_mmu_reset>:
    a1b0:	e3a00000 	mov	r0, #0, 0
    a1b4:	e3a00000 	mov	r0, #0, 0
    a1b8:	ee070f16 	mcr	15, 0, r0, cr7, cr6, {0}
    a1bc:	ee070f15 	mcr	15, 0, r0, cr7, cr5, {0}
    a1c0:	ee070f15 	mcr	15, 0, r0, cr7, cr5, {0}
    a1c4:	ee070f15 	mcr	15, 0, r0, cr7, cr5, {0}
    a1c8:	ee070f15 	mcr	15, 0, r0, cr7, cr5, {0}
    a1cc:	e320f000 	nop	{0}
    a1d0:	e320f000 	nop	{0}
    a1d4:	e320f000 	nop	{0}
    a1d8:	e320f000 	nop	{0}
    a1dc:	e320f000 	nop	{0}
    a1e0:	e320f000 	nop	{0}
    a1e4:	e320f000 	nop	{0}
    a1e8:	e320f000 	nop	{0}
    a1ec:	e320f000 	nop	{0}
    a1f0:	e320f000 	nop	{0}
    a1f4:	e320f000 	nop	{0}
    a1f8:	ee080f17 	mcr	15, 0, r0, cr8, cr7, {0}
    a1fc:	ee070f9a 	mcr	15, 0, r0, cr7, cr10, {4}
    a200:	ee070f9a 	mcr	15, 0, r0, cr7, cr10, {4}
    a204:	ee070fd5 	mcr	15, 0, r0, cr7, cr5, {6}
    a208:	ee070f9a 	mcr	15, 0, r0, cr7, cr10, {4}
    a20c:	ee070f95 	mcr	15, 0, r0, cr7, cr5, {4}
    a210:	e12fff1e 	bx	lr

0000a214 <staff_mmu_enable_set_asm>:
    a214:	e3a01000 	mov	r1, #0, 0
    a218:	ee112f10 	mrc	15, 0, r2, cr1, cr0, {0}
    a21c:	e3c22a01 	bic	r2, r2, #4096	; 0x1000
    a220:	ee012f10 	mcr	15, 0, r2, cr1, cr0, {0}
    a224:	ee071f95 	mcr	15, 0, r1, cr7, cr5, {4}
    a228:	ee071f15 	mcr	15, 0, r1, cr7, cr5, {0}
    a22c:	ee071f15 	mcr	15, 0, r1, cr7, cr5, {0}
    a230:	ee071f15 	mcr	15, 0, r1, cr7, cr5, {0}
    a234:	ee071f15 	mcr	15, 0, r1, cr7, cr5, {0}
    a238:	e320f000 	nop	{0}
    a23c:	e320f000 	nop	{0}
    a240:	e320f000 	nop	{0}
    a244:	e320f000 	nop	{0}
    a248:	e320f000 	nop	{0}
    a24c:	e320f000 	nop	{0}
    a250:	e320f000 	nop	{0}
    a254:	e320f000 	nop	{0}
    a258:	e320f000 	nop	{0}
    a25c:	e320f000 	nop	{0}
    a260:	e320f000 	nop	{0}
    a264:	ee071f9a 	mcr	15, 0, r1, cr7, cr10, {4}
    a268:	ee010f10 	mcr	15, 0, r0, cr1, cr0, {0}
    a26c:	ee071f95 	mcr	15, 0, r1, cr7, cr5, {4}
    a270:	ee071fd5 	mcr	15, 0, r1, cr7, cr5, {6}
    a274:	ee071f95 	mcr	15, 0, r1, cr7, cr5, {4}
    a278:	e12fff1e 	bx	lr

0000a27c <staff_mmu_disable_set_asm>:
    a27c:	e3a01000 	mov	r1, #0, 0
    a280:	ee071f1e 	mcr	15, 0, r1, cr7, cr14, {0}
    a284:	ee071f9a 	mcr	15, 0, r1, cr7, cr10, {4}
    a288:	ee010f10 	mcr	15, 0, r0, cr1, cr0, {0}
    a28c:	ee071f95 	mcr	15, 0, r1, cr7, cr5, {4}
    a290:	ee071f15 	mcr	15, 0, r1, cr7, cr5, {0}
    a294:	ee071f15 	mcr	15, 0, r1, cr7, cr5, {0}
    a298:	ee071f15 	mcr	15, 0, r1, cr7, cr5, {0}
    a29c:	ee071f15 	mcr	15, 0, r1, cr7, cr5, {0}
    a2a0:	e320f000 	nop	{0}
    a2a4:	e320f000 	nop	{0}
    a2a8:	e320f000 	nop	{0}
    a2ac:	e320f000 	nop	{0}
    a2b0:	e320f000 	nop	{0}
    a2b4:	e320f000 	nop	{0}
    a2b8:	e320f000 	nop	{0}
    a2bc:	e320f000 	nop	{0}
    a2c0:	e320f000 	nop	{0}
    a2c4:	e320f000 	nop	{0}
    a2c8:	e320f000 	nop	{0}
    a2cc:	ee071fd5 	mcr	15, 0, r1, cr7, cr5, {6}
    a2d0:	ee071f9a 	mcr	15, 0, r1, cr7, cr10, {4}
    a2d4:	ee071f95 	mcr	15, 0, r1, cr7, cr5, {4}
    a2d8:	e12fff1e 	bx	lr

0000a2dc <staff_cp15_domain_ctrl_wr>:
    a2dc:	ee030f10 	mcr	15, 0, r0, cr3, cr0, {0}
    a2e0:	e3a00000 	mov	r0, #0, 0
    a2e4:	ee070f95 	mcr	15, 0, r0, cr7, cr5, {4}
    a2e8:	e12fff1e 	bx	lr

0000a2ec <_interrupt_table>:
    a2ec:	e59ff030 	ldr	pc, [pc, #48]	; a324 <_interrupt_table_data>
    a2f0:	e59ff030 	ldr	pc, [pc, #48]	; a328 <_undefined_instruction_asm>
    a2f4:	e59ff030 	ldr	pc, [pc, #48]	; a32c <_software_interrupt_asm>
    a2f8:	e59ff030 	ldr	pc, [pc, #48]	; a330 <_prefetch_abort_asm>
    a2fc:	e59ff030 	ldr	pc, [pc, #48]	; a334 <_data_abort_asm>
    a300:	e59ff01c 	ldr	pc, [pc, #28]	; a324 <_interrupt_table_data>
    a304:	e59ff02c 	ldr	pc, [pc, #44]	; a338 <_interrupt_asm>

0000a308 <fast_interrupt_asm>:
    a308:	e24ee004 	sub	lr, lr, #4, 0
    a30c:	e52de004 	push	{lr}		; (str lr, [sp, #-4]!)
    a310:	e92d1fff 	push	{r0, r1, r2, r3, r4, r5, r6, r7, r8, r9, sl, fp, ip}
    a314:	e1a0000e 	mov	r0, lr
    a318:	eb000192 	bl	a968 <fast_interrupt_vector>
    a31c:	e8bd1fff 	pop	{r0, r1, r2, r3, r4, r5, r6, r7, r8, r9, sl, fp, ip}
    a320:	e8fd8000 	ldm	sp!, {pc}^

0000a324 <_interrupt_table_data>:
    a324:	0000a358 	.word	0x0000a358

0000a328 <_undefined_instruction_asm>:
    a328:	0000a374 	.word	0x0000a374

0000a32c <_software_interrupt_asm>:
    a32c:	0000a3c8 	.word	0x0000a3c8

0000a330 <_prefetch_abort_asm>:
    a330:	0000a390 	.word	0x0000a390

0000a334 <_data_abort_asm>:
    a334:	0000a3ac 	.word	0x0000a3ac

0000a338 <_interrupt_asm>:
    a338:	0000a33c 	.word	0x0000a33c

0000a33c <_interrupt_table_end>:
    a33c:	e3a0d409 	mov	sp, #150994944	; 0x9000000
    a340:	e24ee004 	sub	lr, lr, #4, 0
    a344:	e92d5fff 	push	{r0, r1, r2, r3, r4, r5, r6, r7, r8, r9, sl, fp, ip, lr}
    a348:	e1a0000e 	mov	r0, lr
    a34c:	eb0001b2 	bl	aa1c <interrupt_vector>
    a350:	e8bd5fff 	pop	{r0, r1, r2, r3, r4, r5, r6, r7, r8, r9, sl, fp, ip, lr}
    a354:	e1b0f00e 	movs	pc, lr

0000a358 <reset_asm>:
    a358:	e24ee004 	sub	lr, lr, #4, 0
    a35c:	e3a0d409 	mov	sp, #150994944	; 0x9000000
    a360:	e92d5fff 	push	{r0, r1, r2, r3, r4, r5, r6, r7, r8, r9, sl, fp, ip, lr}
    a364:	e1a0000e 	mov	r0, lr
    a368:	eb0001ba 	bl	aa58 <reset_vector>
    a36c:	e8bd5fff 	pop	{r0, r1, r2, r3, r4, r5, r6, r7, r8, r9, sl, fp, ip, lr}
    a370:	e1b0f00e 	movs	pc, lr

0000a374 <undefined_instruction_asm>:
    a374:	e24ee004 	sub	lr, lr, #4, 0
    a378:	e3a0d409 	mov	sp, #150994944	; 0x9000000
    a37c:	e92d5fff 	push	{r0, r1, r2, r3, r4, r5, r6, r7, r8, r9, sl, fp, ip, lr}
    a380:	e1a0000e 	mov	r0, lr
    a384:	eb0001d1 	bl	aad0 <undefined_instruction_vector>
    a388:	e8bd5fff 	pop	{r0, r1, r2, r3, r4, r5, r6, r7, r8, r9, sl, fp, ip, lr}
    a38c:	e1b0f00e 	movs	pc, lr

0000a390 <prefetch_abort_asm>:
    a390:	e24ee004 	sub	lr, lr, #4, 0
    a394:	e3a0d409 	mov	sp, #150994944	; 0x9000000
    a398:	e92d5fff 	push	{r0, r1, r2, r3, r4, r5, r6, r7, r8, r9, sl, fp, ip, lr}
    a39c:	e1a0000e 	mov	r0, lr
    a3a0:	ebfffe04 	bl	9bb8 <prefetch_abort_vector>
    a3a4:	e8bd5fff 	pop	{r0, r1, r2, r3, r4, r5, r6, r7, r8, r9, sl, fp, ip, lr}
    a3a8:	e1b0f00e 	movs	pc, lr

0000a3ac <data_abort_asm>:
    a3ac:	e24ee008 	sub	lr, lr, #8, 0
    a3b0:	e3a0d409 	mov	sp, #150994944	; 0x9000000
    a3b4:	e92d5fff 	push	{r0, r1, r2, r3, r4, r5, r6, r7, r8, r9, sl, fp, ip, lr}
    a3b8:	e1a0000e 	mov	r0, lr
    a3bc:	ebfffe35 	bl	9c98 <data_abort_vector>
    a3c0:	e8bd5fff 	pop	{r0, r1, r2, r3, r4, r5, r6, r7, r8, r9, sl, fp, ip, lr}
    a3c4:	e1b0f00e 	movs	pc, lr

0000a3c8 <software_interrupt_asm>:
    a3c8:	e24ee004 	sub	lr, lr, #4, 0
    a3cc:	e3a0d409 	mov	sp, #150994944	; 0x9000000
    a3d0:	e92d5fff 	push	{r0, r1, r2, r3, r4, r5, r6, r7, r8, r9, sl, fp, ip, lr}
    a3d4:	e1a0000e 	mov	r0, lr
    a3d8:	eb0001ad 	bl	aa94 <syscall_vector>
    a3dc:	e8bd5fff 	pop	{r0, r1, r2, r3, r4, r5, r6, r7, r8, r9, sl, fp, ip, lr}
    a3e0:	e1b0f00e 	movs	pc, lr
	...

0000a400 <reset>:
    a400:	e24ee004 	sub	lr, lr, #4, 0
    a404:	e3a0d409 	mov	sp, #150994944	; 0x9000000
    a408:	e92d5fff 	push	{r0, r1, r2, r3, r4, r5, r6, r7, r8, r9, sl, fp, ip, lr}
    a40c:	e1a0000e 	mov	r0, lr
    a410:	eb000190 	bl	aa58 <reset_vector>
    a414:	e8bd5fff 	pop	{r0, r1, r2, r3, r4, r5, r6, r7, r8, r9, sl, fp, ip, lr}
    a418:	e1b0f00e 	movs	pc, lr

0000a41c <undef>:
    a41c:	e24ee004 	sub	lr, lr, #4, 0
    a420:	e3a0d409 	mov	sp, #150994944	; 0x9000000
    a424:	e92d5fff 	push	{r0, r1, r2, r3, r4, r5, r6, r7, r8, r9, sl, fp, ip, lr}
    a428:	e1a0000e 	mov	r0, lr
    a42c:	eb0001a7 	bl	aad0 <undefined_instruction_vector>
    a430:	e8bd5fff 	pop	{r0, r1, r2, r3, r4, r5, r6, r7, r8, r9, sl, fp, ip, lr}
    a434:	e1b0f00e 	movs	pc, lr

0000a438 <prefetch_abort>:
    a438:	e24ee004 	sub	lr, lr, #4, 0
    a43c:	e3a0d409 	mov	sp, #150994944	; 0x9000000
    a440:	e92d5fff 	push	{r0, r1, r2, r3, r4, r5, r6, r7, r8, r9, sl, fp, ip, lr}
    a444:	e1a0000e 	mov	r0, lr
    a448:	ebfffdda 	bl	9bb8 <prefetch_abort_vector>
    a44c:	e8bd5fff 	pop	{r0, r1, r2, r3, r4, r5, r6, r7, r8, r9, sl, fp, ip, lr}
    a450:	e1b0f00e 	movs	pc, lr

0000a454 <data_abort>:
    a454:	e24ee008 	sub	lr, lr, #8, 0
    a458:	e3a0d409 	mov	sp, #150994944	; 0x9000000
    a45c:	e92d5fff 	push	{r0, r1, r2, r3, r4, r5, r6, r7, r8, r9, sl, fp, ip, lr}
    a460:	e1a0000e 	mov	r0, lr
    a464:	ebfffe0b 	bl	9c98 <data_abort_vector>
    a468:	e8bd5fff 	pop	{r0, r1, r2, r3, r4, r5, r6, r7, r8, r9, sl, fp, ip, lr}
    a46c:	e1b0f00e 	movs	pc, lr

0000a470 <interrupt>:
    a470:	e24ee004 	sub	lr, lr, #4, 0
    a474:	e3a0d409 	mov	sp, #150994944	; 0x9000000
    a478:	e92d5fff 	push	{r0, r1, r2, r3, r4, r5, r6, r7, r8, r9, sl, fp, ip, lr}
    a47c:	e1a0000e 	mov	r0, lr
    a480:	eb000156 	bl	a9e0 <int_vector>
    a484:	e8bd5fff 	pop	{r0, r1, r2, r3, r4, r5, r6, r7, r8, r9, sl, fp, ip, lr}
    a488:	e1b0f00e 	movs	pc, lr

0000a48c <syscall>:
    a48c:	e24ee004 	sub	lr, lr, #4, 0
    a490:	e3a0d409 	mov	sp, #150994944	; 0x9000000
    a494:	e92d5fff 	push	{r0, r1, r2, r3, r4, r5, r6, r7, r8, r9, sl, fp, ip, lr}
    a498:	e1a0000e 	mov	r0, lr
    a49c:	eb00017c 	bl	aa94 <syscall_vector>
    a4a0:	e8bd5fff 	pop	{r0, r1, r2, r3, r4, r5, r6, r7, r8, r9, sl, fp, ip, lr}
    a4a4:	e1b0f00e 	movs	pc, lr
    a4a8:	e320f000 	nop	{0}
    a4ac:	e320f000 	nop	{0}
    a4b0:	e320f000 	nop	{0}
    a4b4:	e320f000 	nop	{0}
    a4b8:	e320f000 	nop	{0}
    a4bc:	e320f000 	nop	{0}

0000a4c0 <default_vec_ints>:
    a4c0:	eaffffce 	b	a400 <reset>
    a4c4:	eaffffd4 	b	a41c <undef>
    a4c8:	eaffffef 	b	a48c <syscall>
    a4cc:	eaffffd9 	b	a438 <prefetch_abort>
    a4d0:	eaffffdf 	b	a454 <data_abort>
    a4d4:	eaffffc9 	b	a400 <reset>
    a4d8:	eaffffe4 	b	a470 <interrupt>

0000a4dc <memset>:
    a4dc:	e92d4030 	push	{r4, r5, lr}
    a4e0:	e24dd00c 	sub	sp, sp, #12, 0
    a4e4:	e3520000 	cmp	r2, #0, 0
    a4e8:	0a00000b 	beq	a51c <memset+0x40>
    a4ec:	e3510000 	cmp	r1, #0, 0
    a4f0:	1a000007 	bne	a514 <memset+0x38>
    a4f4:	e3100007 	tst	r0, #7, 0
    a4f8:	1a000001 	bne	a504 <memset+0x28>
    a4fc:	e3120007 	tst	r2, #7, 0
    a500:	0a00000d 	beq	a53c <memset+0x60>
    a504:	e3100003 	tst	r0, #3, 0
    a508:	1a000001 	bne	a514 <memset+0x38>
    a50c:	e3120003 	tst	r2, #3, 0
    a510:	0a000013 	beq	a564 <memset+0x88>
    a514:	e0802002 	add	r2, r0, r2
    a518:	ea00001a 	b	a588 <memset+0xac>
    a51c:	e59f3074 	ldr	r3, [pc, #116]	; a598 <memset+0xbc>
    a520:	e58d3000 	str	r3, [sp]
    a524:	e3a03008 	mov	r3, #8, 0
    a528:	e59f206c 	ldr	r2, [pc, #108]	; a59c <memset+0xc0>
    a52c:	e59f106c 	ldr	r1, [pc, #108]	; a5a0 <memset+0xc4>
    a530:	e59f006c 	ldr	r0, [pc, #108]	; a5a4 <memset+0xc8>
    a534:	eb00001b 	bl	a5a8 <printk>
    a538:	eb0000f2 	bl	a908 <clean_reboot>
    a53c:	e1a021a2 	lsr	r2, r2, #3
    a540:	ea000003 	b	a554 <memset+0x78>
    a544:	e1a04001 	mov	r4, r1
    a548:	e1a05fc1 	asr	r5, r1, #31
    a54c:	e0c040f8 	strd	r4, [r0], #8
    a550:	e1a02003 	mov	r2, r3
    a554:	e2423001 	sub	r3, r2, #1, 0
    a558:	e3520000 	cmp	r2, #0, 0
    a55c:	1afffff8 	bne	a544 <memset+0x68>
    a560:	ea00000a 	b	a590 <memset+0xb4>
    a564:	e1a02122 	lsr	r2, r2, #2
    a568:	ea000001 	b	a574 <memset+0x98>
    a56c:	e4801004 	str	r1, [r0], #4
    a570:	e1a02003 	mov	r2, r3
    a574:	e2423001 	sub	r3, r2, #1, 0
    a578:	e3520000 	cmp	r2, #0, 0
    a57c:	1afffffa 	bne	a56c <memset+0x90>
    a580:	ea000002 	b	a590 <memset+0xb4>
    a584:	e4c01001 	strb	r1, [r0], #1
    a588:	e1500002 	cmp	r0, r2
    a58c:	3afffffc 	bcc	a584 <memset+0xa8>
    a590:	e28dd00c 	add	sp, sp, #12, 0
    a594:	e8bd8030 	pop	{r4, r5, pc}
    a598:	0000c1cc 	.word	0x0000c1cc
    a59c:	0000c1d0 	.word	0x0000c1d0
    a5a0:	0000c1bc 	.word	0x0000c1bc
    a5a4:	0000b39c 	.word	0x0000b39c

0000a5a8 <printk>:
    a5a8:	e92d000f 	push	{r0, r1, r2, r3}
    a5ac:	e52de004 	push	{lr}		; (str lr, [sp, #-4]!)
    a5b0:	e24dd00c 	sub	sp, sp, #12, 0
    a5b4:	e28d1014 	add	r1, sp, #20, 0
    a5b8:	e58d1004 	str	r1, [sp, #4]
    a5bc:	e59d0010 	ldr	r0, [sp, #16]
    a5c0:	eb000047 	bl	a6e4 <vprintk>
    a5c4:	e28dd00c 	add	sp, sp, #12, 0
    a5c8:	e49de004 	pop	{lr}		; (ldr lr, [sp], #4)
    a5cc:	e28dd010 	add	sp, sp, #16, 0
    a5d0:	e12fff1e 	bx	lr

0000a5d4 <emit_val>:
    a5d4:	e92d4010 	push	{r4, lr}
    a5d8:	e24dd030 	sub	sp, sp, #48, 0	; 0x30
    a5dc:	e350000a 	cmp	r0, #10, 0
    a5e0:	0a000014 	beq	a638 <emit_val+0x64>
    a5e4:	e3500010 	cmp	r0, #16, 0
    a5e8:	0a000022 	beq	a678 <emit_val+0xa4>
    a5ec:	e3500002 	cmp	r0, #2, 0
    a5f0:	0a000006 	beq	a610 <emit_val+0x3c>
    a5f4:	e58d0000 	str	r0, [sp]
    a5f8:	e3a03019 	mov	r3, #25, 0
    a5fc:	e59f20c0 	ldr	r2, [pc, #192]	; a6c4 <emit_val+0xf0>
    a600:	e59f10c0 	ldr	r1, [pc, #192]	; a6c8 <emit_val+0xf4>
    a604:	e59f00c0 	ldr	r0, [pc, #192]	; a6cc <emit_val+0xf8>
    a608:	ebffffe6 	bl	a5a8 <printk>
    a60c:	eb0000bd 	bl	a908 <clean_reboot>
    a610:	e28d400c 	add	r4, sp, #12, 0
    a614:	e2012001 	and	r2, r1, #1, 0
    a618:	e59f00b0 	ldr	r0, [pc, #176]	; a6d0 <emit_val+0xfc>
    a61c:	e7d02002 	ldrb	r2, [r0, r2]
    a620:	e5c42000 	strb	r2, [r4]
    a624:	e2844001 	add	r4, r4, #1, 0
    a628:	e3510001 	cmp	r1, #1, 0
    a62c:	e1a010a1 	lsr	r1, r1, #1
    a630:	8afffff7 	bhi	a614 <emit_val+0x40>
    a634:	ea00001d 	b	a6b0 <emit_val+0xdc>
    a638:	e28d400c 	add	r4, sp, #12, 0
    a63c:	e59f3090 	ldr	r3, [pc, #144]	; a6d4 <emit_val+0x100>
    a640:	e0832193 	umull	r2, r3, r3, r1
    a644:	e1a031a3 	lsr	r3, r3, #3
    a648:	e1a00003 	mov	r0, r3
    a64c:	e0833103 	add	r3, r3, r3, lsl #2
    a650:	e0413083 	sub	r3, r1, r3, lsl #1
    a654:	e59fc07c 	ldr	ip, [pc, #124]	; a6d8 <emit_val+0x104>
    a658:	e7dcc003 	ldrb	ip, [ip, r3]
    a65c:	e5c4c000 	strb	ip, [r4]
    a660:	e2844001 	add	r4, r4, #1, 0
    a664:	e1a03001 	mov	r3, r1
    a668:	e1a01000 	mov	r1, r0
    a66c:	e3530009 	cmp	r3, #9, 0
    a670:	8afffff1 	bhi	a63c <emit_val+0x68>
    a674:	ea00000d 	b	a6b0 <emit_val+0xdc>
    a678:	e28d400c 	add	r4, sp, #12, 0
    a67c:	e201200f 	and	r2, r1, #15, 0
    a680:	e59f0054 	ldr	r0, [pc, #84]	; a6dc <emit_val+0x108>
    a684:	e7d02002 	ldrb	r2, [r0, r2]
    a688:	e5c42000 	strb	r2, [r4]
    a68c:	e2844001 	add	r4, r4, #1, 0
    a690:	e351000f 	cmp	r1, #15, 0
    a694:	e1a01221 	lsr	r1, r1, #4
    a698:	8afffff7 	bhi	a67c <emit_val+0xa8>
    a69c:	ea000003 	b	a6b0 <emit_val+0xdc>
    a6a0:	e59f3038 	ldr	r3, [pc, #56]	; a6e0 <emit_val+0x10c>
    a6a4:	e5933000 	ldr	r3, [r3]
    a6a8:	e5740001 	ldrb	r0, [r4, #-1]!
    a6ac:	e12fff33 	blx	r3
    a6b0:	e28d300c 	add	r3, sp, #12, 0
    a6b4:	e1540003 	cmp	r4, r3
    a6b8:	8afffff8 	bhi	a6a0 <emit_val+0xcc>
    a6bc:	e28dd030 	add	sp, sp, #48, 0	; 0x30
    a6c0:	e8bd8010 	pop	{r4, pc}
    a6c4:	0000c258 	.word	0x0000c258
    a6c8:	0000c1d8 	.word	0x0000c1d8
    a6cc:	0000c1e8 	.word	0x0000c1e8
    a6d0:	0000c20c 	.word	0x0000c20c
    a6d4:	cccccccd 	.word	0xcccccccd
    a6d8:	0000c210 	.word	0x0000c210
    a6dc:	0000c21c 	.word	0x0000c21c
    a6e0:	0000c65c 	.word	0x0000c65c

0000a6e4 <vprintk>:
    a6e4:	e92d4030 	push	{r4, r5, lr}
    a6e8:	e24dd014 	sub	sp, sp, #20, 0
    a6ec:	e1a04000 	mov	r4, r0
    a6f0:	e58d100c 	str	r1, [sp, #12]
    a6f4:	ea000003 	b	a708 <vprintk+0x24>
    a6f8:	e59f31d0 	ldr	r3, [pc, #464]	; a8d0 <vprintk+0x1ec>
    a6fc:	e5933000 	ldr	r3, [r3]
    a700:	e12fff33 	blx	r3
    a704:	e2844001 	add	r4, r4, #1, 0
    a708:	e5d40000 	ldrb	r0, [r4]
    a70c:	e3500000 	cmp	r0, #0, 0
    a710:	0a00006c 	beq	a8c8 <vprintk+0x1e4>
    a714:	e3500025 	cmp	r0, #37, 0	; 0x25
    a718:	1afffff6 	bne	a6f8 <vprintk+0x14>
    a71c:	e2845001 	add	r5, r4, #1, 0
    a720:	e5d42001 	ldrb	r2, [r4, #1]
    a724:	e2423062 	sub	r3, r2, #98, 0	; 0x62
    a728:	e3530016 	cmp	r3, #22, 0
    a72c:	979ff103 	ldrls	pc, [pc, r3, lsl #2]
    a730:	ea00005d 	b	a8ac <vprintk+0x1c8>
    a734:	0000a790 	.word	0x0000a790
    a738:	0000a7d0 	.word	0x0000a7d0
    a73c:	0000a830 	.word	0x0000a830
    a740:	0000a8ac 	.word	0x0000a8ac
    a744:	0000a8ac 	.word	0x0000a8ac
    a748:	0000a8ac 	.word	0x0000a8ac
    a74c:	0000a8ac 	.word	0x0000a8ac
    a750:	0000a8ac 	.word	0x0000a8ac
    a754:	0000a8ac 	.word	0x0000a8ac
    a758:	0000a8ac 	.word	0x0000a8ac
    a75c:	0000a8ac 	.word	0x0000a8ac
    a760:	0000a8ac 	.word	0x0000a8ac
    a764:	0000a8ac 	.word	0x0000a8ac
    a768:	0000a8ac 	.word	0x0000a8ac
    a76c:	0000a7f4 	.word	0x0000a7f4
    a770:	0000a8ac 	.word	0x0000a8ac
    a774:	0000a8ac 	.word	0x0000a8ac
    a778:	0000a874 	.word	0x0000a874
    a77c:	0000a8ac 	.word	0x0000a8ac
    a780:	0000a7b0 	.word	0x0000a7b0
    a784:	0000a8ac 	.word	0x0000a8ac
    a788:	0000a8ac 	.word	0x0000a8ac
    a78c:	0000a7f4 	.word	0x0000a7f4
    a790:	e59d300c 	ldr	r3, [sp, #12]
    a794:	e2832004 	add	r2, r3, #4, 0
    a798:	e58d200c 	str	r2, [sp, #12]
    a79c:	e5931000 	ldr	r1, [r3]
    a7a0:	e3a00002 	mov	r0, #2, 0
    a7a4:	ebffff8a 	bl	a5d4 <emit_val>
    a7a8:	e1a04005 	mov	r4, r5
    a7ac:	eaffffd4 	b	a704 <vprintk+0x20>
    a7b0:	e59d300c 	ldr	r3, [sp, #12]
    a7b4:	e2832004 	add	r2, r3, #4, 0
    a7b8:	e58d200c 	str	r2, [sp, #12]
    a7bc:	e5931000 	ldr	r1, [r3]
    a7c0:	e3a0000a 	mov	r0, #10, 0
    a7c4:	ebffff82 	bl	a5d4 <emit_val>
    a7c8:	e1a04005 	mov	r4, r5
    a7cc:	eaffffcc 	b	a704 <vprintk+0x20>
    a7d0:	e59f30f8 	ldr	r3, [pc, #248]	; a8d0 <vprintk+0x1ec>
    a7d4:	e5932000 	ldr	r2, [r3]
    a7d8:	e59d300c 	ldr	r3, [sp, #12]
    a7dc:	e2831004 	add	r1, r3, #4, 0
    a7e0:	e58d100c 	str	r1, [sp, #12]
    a7e4:	e5930000 	ldr	r0, [r3]
    a7e8:	e12fff32 	blx	r2
    a7ec:	e1a04005 	mov	r4, r5
    a7f0:	eaffffc3 	b	a704 <vprintk+0x20>
    a7f4:	e59f40d4 	ldr	r4, [pc, #212]	; a8d0 <vprintk+0x1ec>
    a7f8:	e5943000 	ldr	r3, [r4]
    a7fc:	e3a00030 	mov	r0, #48, 0	; 0x30
    a800:	e12fff33 	blx	r3
    a804:	e5943000 	ldr	r3, [r4]
    a808:	e3a00078 	mov	r0, #120, 0	; 0x78
    a80c:	e12fff33 	blx	r3
    a810:	e59d300c 	ldr	r3, [sp, #12]
    a814:	e2832004 	add	r2, r3, #4, 0
    a818:	e58d200c 	str	r2, [sp, #12]
    a81c:	e5931000 	ldr	r1, [r3]
    a820:	e3a00010 	mov	r0, #16, 0
    a824:	ebffff6a 	bl	a5d4 <emit_val>
    a828:	e1a04005 	mov	r4, r5
    a82c:	eaffffb4 	b	a704 <vprintk+0x20>
    a830:	e59d300c 	ldr	r3, [sp, #12]
    a834:	e2832004 	add	r2, r3, #4, 0
    a838:	e58d200c 	str	r2, [sp, #12]
    a83c:	e5934000 	ldr	r4, [r3]
    a840:	e3540000 	cmp	r4, #0, 0
    a844:	ba000004 	blt	a85c <vprintk+0x178>
    a848:	e1a01004 	mov	r1, r4
    a84c:	e3a0000a 	mov	r0, #10, 0
    a850:	ebffff5f 	bl	a5d4 <emit_val>
    a854:	e1a04005 	mov	r4, r5
    a858:	eaffffa9 	b	a704 <vprintk+0x20>
    a85c:	e59f306c 	ldr	r3, [pc, #108]	; a8d0 <vprintk+0x1ec>
    a860:	e5933000 	ldr	r3, [r3]
    a864:	e3a0002d 	mov	r0, #45, 0	; 0x2d
    a868:	e12fff33 	blx	r3
    a86c:	e2644000 	rsb	r4, r4, #0, 0
    a870:	eafffff4 	b	a848 <vprintk+0x164>
    a874:	e59d300c 	ldr	r3, [sp, #12]
    a878:	e2832004 	add	r2, r3, #4, 0
    a87c:	e58d200c 	str	r2, [sp, #12]
    a880:	e5934000 	ldr	r4, [r3]
    a884:	e5d40000 	ldrb	r0, [r4]
    a888:	e3500000 	cmp	r0, #0, 0
    a88c:	0a000004 	beq	a8a4 <vprintk+0x1c0>
    a890:	e59f3038 	ldr	r3, [pc, #56]	; a8d0 <vprintk+0x1ec>
    a894:	e5933000 	ldr	r3, [r3]
    a898:	e12fff33 	blx	r3
    a89c:	e2844001 	add	r4, r4, #1, 0
    a8a0:	eafffff7 	b	a884 <vprintk+0x1a0>
    a8a4:	e1a04005 	mov	r4, r5
    a8a8:	eaffff95 	b	a704 <vprintk+0x20>
    a8ac:	e58d2000 	str	r2, [sp]
    a8b0:	e3a03049 	mov	r3, #73, 0	; 0x49
    a8b4:	e59f2018 	ldr	r2, [pc, #24]	; a8d4 <vprintk+0x1f0>
    a8b8:	e59f1018 	ldr	r1, [pc, #24]	; a8d8 <vprintk+0x1f4>
    a8bc:	e59f0018 	ldr	r0, [pc, #24]	; a8dc <vprintk+0x1f8>
    a8c0:	ebffff38 	bl	a5a8 <printk>
    a8c4:	eb00000f 	bl	a908 <clean_reboot>
    a8c8:	e28dd014 	add	sp, sp, #20, 0
    a8cc:	e8bd8030 	pop	{r4, r5, pc}
    a8d0:	0000c65c 	.word	0x0000c65c
    a8d4:	0000c264 	.word	0x0000c264
    a8d8:	0000c1d8 	.word	0x0000c1d8
    a8dc:	0000c230 	.word	0x0000c230

0000a8e0 <default_putchar>:
    a8e0:	e92d4010 	push	{r4, lr}
    a8e4:	e1a04000 	mov	r4, r0
    a8e8:	e6ef0070 	uxtb	r0, r0
    a8ec:	eb000120 	bl	ad74 <uart_put8>
    a8f0:	e1a00004 	mov	r0, r4
    a8f4:	e8bd8010 	pop	{r4, pc}

0000a8f8 <rpi_putchar_set>:
    a8f8:	e59f3004 	ldr	r3, [pc, #4]	; a904 <rpi_putchar_set+0xc>
    a8fc:	e5830000 	str	r0, [r3]
    a900:	e12fff1e 	bx	lr
    a904:	0000c65c 	.word	0x0000c65c

0000a908 <clean_reboot>:
    a908:	e92d4010 	push	{r4, lr}
    a90c:	e59f0010 	ldr	r0, [pc, #16]	; a924 <clean_reboot+0x1c>
    a910:	eb00023e 	bl	b210 <putk>
    a914:	eb000131 	bl	ade0 <uart_flush_tx>
    a918:	e3a0000a 	mov	r0, #10, 0
    a91c:	eb0000af 	bl	abe0 <delay_ms>
    a920:	eb000084 	bl	ab38 <rpi_reboot>
    a924:	0000c26c 	.word	0x0000c26c

0000a928 <_cstart>:
    a928:	e92d4010 	push	{r4, lr}
    a92c:	eb00000c 	bl	a964 <custom_loader>
    a930:	e59f3024 	ldr	r3, [pc, #36]	; a95c <_cstart+0x34>
    a934:	e59f2024 	ldr	r2, [pc, #36]	; a960 <_cstart+0x38>
    a938:	e1530002 	cmp	r3, r2
    a93c:	33a02000 	movcc	r2, #0, 0
    a940:	34832004 	strcc	r2, [r3], #4
    a944:	3afffffa 	bcc	a934 <_cstart+0xc>
    a948:	eb0000c0 	bl	ac50 <uart_init>
    a94c:	e3a03001 	mov	r3, #1, 0
    a950:	ee0f3f1c 	mcr	15, 0, r3, cr15, cr12, {0}
    a954:	ebfff5df 	bl	80d8 <notmain>
    a958:	ebffffea 	bl	a908 <clean_reboot>
    a95c:	0000c66c 	.word	0x0000c66c
    a960:	0000c698 	.word	0x0000c698

0000a964 <custom_loader>:
    a964:	e12fff1e 	bx	lr

0000a968 <fast_interrupt_vector>:
    a968:	e52de004 	push	{lr}		; (str lr, [sp, #-4]!)
    a96c:	e24dd00c 	sub	sp, sp, #12, 0
    a970:	e58d0004 	str	r0, [sp, #4]
    a974:	e59f3018 	ldr	r3, [pc, #24]	; a994 <fast_interrupt_vector+0x2c>
    a978:	e58d3000 	str	r3, [sp]
    a97c:	e3a03002 	mov	r3, #2, 0
    a980:	e59f2010 	ldr	r2, [pc, #16]	; a998 <fast_interrupt_vector+0x30>
    a984:	e59f1010 	ldr	r1, [pc, #16]	; a99c <fast_interrupt_vector+0x34>
    a988:	e59f0010 	ldr	r0, [pc, #16]	; a9a0 <fast_interrupt_vector+0x38>
    a98c:	ebffff05 	bl	a5a8 <printk>
    a990:	ebffffdc 	bl	a908 <clean_reboot>
    a994:	0000c2e8 	.word	0x0000c2e8
    a998:	0000c2f0 	.word	0x0000c2f0
    a99c:	0000c278 	.word	0x0000c278
    a9a0:	0000c29c 	.word	0x0000c29c

0000a9a4 <fiq_vector>:
    a9a4:	e52de004 	push	{lr}		; (str lr, [sp, #-4]!)
    a9a8:	e24dd00c 	sub	sp, sp, #12, 0
    a9ac:	e58d0004 	str	r0, [sp, #4]
    a9b0:	e59f3018 	ldr	r3, [pc, #24]	; a9d0 <fiq_vector+0x2c>
    a9b4:	e58d3000 	str	r3, [sp]
    a9b8:	e3a03003 	mov	r3, #3, 0
    a9bc:	e59f2010 	ldr	r2, [pc, #16]	; a9d4 <fiq_vector+0x30>
    a9c0:	e59f1010 	ldr	r1, [pc, #16]	; a9d8 <fiq_vector+0x34>
    a9c4:	e59f0010 	ldr	r0, [pc, #16]	; a9dc <fiq_vector+0x38>
    a9c8:	ebfffef6 	bl	a5a8 <printk>
    a9cc:	ebffffcd 	bl	a908 <clean_reboot>
    a9d0:	0000c2e8 	.word	0x0000c2e8
    a9d4:	0000c308 	.word	0x0000c308
    a9d8:	0000c278 	.word	0x0000c278
    a9dc:	0000c29c 	.word	0x0000c29c

0000a9e0 <int_vector>:
    a9e0:	e52de004 	push	{lr}		; (str lr, [sp, #-4]!)
    a9e4:	e24dd00c 	sub	sp, sp, #12, 0
    a9e8:	e58d0004 	str	r0, [sp, #4]
    a9ec:	e59f3018 	ldr	r3, [pc, #24]	; aa0c <int_vector+0x2c>
    a9f0:	e58d3000 	str	r3, [sp]
    a9f4:	e3a03003 	mov	r3, #3, 0
    a9f8:	e59f2010 	ldr	r2, [pc, #16]	; aa10 <int_vector+0x30>
    a9fc:	e59f1010 	ldr	r1, [pc, #16]	; aa14 <int_vector+0x34>
    aa00:	e59f0010 	ldr	r0, [pc, #16]	; aa18 <int_vector+0x38>
    aa04:	ebfffee7 	bl	a5a8 <printk>
    aa08:	ebffffbe 	bl	a908 <clean_reboot>
    aa0c:	0000c338 	.word	0x0000c338
    aa10:	0000c344 	.word	0x0000c344
    aa14:	0000c314 	.word	0x0000c314
    aa18:	0000c29c 	.word	0x0000c29c

0000aa1c <interrupt_vector>:
    aa1c:	e52de004 	push	{lr}		; (str lr, [sp, #-4]!)
    aa20:	e24dd00c 	sub	sp, sp, #12, 0
    aa24:	e58d0004 	str	r0, [sp, #4]
    aa28:	e59f3018 	ldr	r3, [pc, #24]	; aa48 <interrupt_vector+0x2c>
    aa2c:	e58d3000 	str	r3, [sp]
    aa30:	e3a03003 	mov	r3, #3, 0
    aa34:	e59f2010 	ldr	r2, [pc, #16]	; aa4c <interrupt_vector+0x30>
    aa38:	e59f1010 	ldr	r1, [pc, #16]	; aa50 <interrupt_vector+0x34>
    aa3c:	e59f0010 	ldr	r0, [pc, #16]	; aa54 <interrupt_vector+0x38>
    aa40:	ebfffed8 	bl	a5a8 <printk>
    aa44:	ebffffaf 	bl	a908 <clean_reboot>
    aa48:	0000c338 	.word	0x0000c338
    aa4c:	0000c378 	.word	0x0000c378
    aa50:	0000c350 	.word	0x0000c350
    aa54:	0000c29c 	.word	0x0000c29c

0000aa58 <reset_vector>:
    aa58:	e52de004 	push	{lr}		; (str lr, [sp, #-4]!)
    aa5c:	e24dd00c 	sub	sp, sp, #12, 0
    aa60:	e58d0004 	str	r0, [sp, #4]
    aa64:	e59f3018 	ldr	r3, [pc, #24]	; aa84 <reset_vector+0x2c>
    aa68:	e58d3000 	str	r3, [sp]
    aa6c:	e3a03002 	mov	r3, #2, 0
    aa70:	e59f2010 	ldr	r2, [pc, #16]	; aa88 <reset_vector+0x30>
    aa74:	e59f1010 	ldr	r1, [pc, #16]	; aa8c <reset_vector+0x34>
    aa78:	e59f0010 	ldr	r0, [pc, #16]	; aa90 <reset_vector+0x38>
    aa7c:	ebfffec9 	bl	a5a8 <printk>
    aa80:	ebffffa0 	bl	a908 <clean_reboot>
    aa84:	0000c3b0 	.word	0x0000c3b0
    aa88:	0000c3b8 	.word	0x0000c3b8
    aa8c:	0000c38c 	.word	0x0000c38c
    aa90:	0000c29c 	.word	0x0000c29c

0000aa94 <syscall_vector>:
    aa94:	e52de004 	push	{lr}		; (str lr, [sp, #-4]!)
    aa98:	e24dd00c 	sub	sp, sp, #12, 0
    aa9c:	e58d0004 	str	r0, [sp, #4]
    aaa0:	e59f3018 	ldr	r3, [pc, #24]	; aac0 <syscall_vector+0x2c>
    aaa4:	e58d3000 	str	r3, [sp]
    aaa8:	e3a03003 	mov	r3, #3, 0
    aaac:	e59f2010 	ldr	r2, [pc, #16]	; aac4 <syscall_vector+0x30>
    aab0:	e59f1010 	ldr	r1, [pc, #16]	; aac8 <syscall_vector+0x34>
    aab4:	e59f0010 	ldr	r0, [pc, #16]	; aacc <syscall_vector+0x38>
    aab8:	ebfffeba 	bl	a5a8 <printk>
    aabc:	ebffff91 	bl	a908 <clean_reboot>
    aac0:	0000c3ec 	.word	0x0000c3ec
    aac4:	0000c3f0 	.word	0x0000c3f0
    aac8:	0000c3c8 	.word	0x0000c3c8
    aacc:	0000c29c 	.word	0x0000c29c

0000aad0 <undefined_instruction_vector>:
    aad0:	e52de004 	push	{lr}		; (str lr, [sp, #-4]!)
    aad4:	e24dd00c 	sub	sp, sp, #12, 0
    aad8:	e58d0004 	str	r0, [sp, #4]
    aadc:	e59f3018 	ldr	r3, [pc, #24]	; aafc <undefined_instruction_vector+0x2c>
    aae0:	e58d3000 	str	r3, [sp]
    aae4:	e3a03002 	mov	r3, #2, 0
    aae8:	e59f2010 	ldr	r2, [pc, #16]	; ab00 <undefined_instruction_vector+0x30>
    aaec:	e59f1010 	ldr	r1, [pc, #16]	; ab04 <undefined_instruction_vector+0x34>
    aaf0:	e59f0010 	ldr	r0, [pc, #16]	; ab08 <undefined_instruction_vector+0x38>
    aaf4:	ebfffeab 	bl	a5a8 <printk>
    aaf8:	ebffff82 	bl	a908 <clean_reboot>
    aafc:	0000c430 	.word	0x0000c430
    ab00:	0000c440 	.word	0x0000c440
    ab04:	0000c400 	.word	0x0000c400
    ab08:	0000c29c 	.word	0x0000c29c

0000ab0c <at_user_level>:
    ab0c:	e10f0000 	mrs	r0, CPSR
    ab10:	e200001f 	and	r0, r0, #31, 0
    ab14:	e3500010 	cmp	r0, #16, 0
    ab18:	13a00000 	movne	r0, #0, 0
    ab1c:	03a00001 	moveq	r0, #1, 0
    ab20:	e12fff1e 	bx	lr

0000ab24 <set_user_level>:
    ab24:	e10f3000 	mrs	r3, CPSR
    ab28:	e3c3301f 	bic	r3, r3, #31, 0
    ab2c:	e3833010 	orr	r3, r3, #16, 0
    ab30:	e129f003 	msr	CPSR_fc, r3
    ab34:	e12fff1e 	bx	lr

0000ab38 <rpi_reboot>:
    ab38:	e92d4010 	push	{r4, lr}
    ab3c:	ebfffff2 	bl	ab0c <at_user_level>
    ab40:	e3500000 	cmp	r0, #0, 0
    ab44:	1a00000a 	bne	ab74 <rpi_reboot+0x3c>
    ab48:	ebfffc14 	bl	9ba0 <reboot_callout>
    ab4c:	eb0000a3 	bl	ade0 <uart_flush_tx>
    ab50:	e3a0000a 	mov	r0, #10, 0
    ab54:	eb000021 	bl	abe0 <delay_ms>
    ab58:	e59f101c 	ldr	r1, [pc, #28]	; ab7c <rpi_reboot+0x44>
    ab5c:	e59f001c 	ldr	r0, [pc, #28]	; ab80 <rpi_reboot+0x48>
    ab60:	ebfff52f 	bl	8024 <PUT32>
    ab64:	e59f1018 	ldr	r1, [pc, #24]	; ab84 <rpi_reboot+0x4c>
    ab68:	e59f0018 	ldr	r0, [pc, #24]	; ab88 <rpi_reboot+0x50>
    ab6c:	ebfff52c 	bl	8024 <PUT32>
    ab70:	eafffffe 	b	ab70 <rpi_reboot+0x38>
    ab74:	ebffffea 	bl	ab24 <set_user_level>
    ab78:	eafffff2 	b	ab48 <rpi_reboot+0x10>
    ab7c:	5a000001 	.word	0x5a000001
    ab80:	20100024 	.word	0x20100024
    ab84:	5a000020 	.word	0x5a000020
    ab88:	2010001c 	.word	0x2010001c

0000ab8c <timer_get_usec_raw>:
    ab8c:	e92d4010 	push	{r4, lr}
    ab90:	e59f0004 	ldr	r0, [pc, #4]	; ab9c <timer_get_usec_raw+0x10>
    ab94:	ebfff524 	bl	802c <GET32>
    ab98:	e8bd8010 	pop	{r4, pc}
    ab9c:	20003004 	.word	0x20003004

0000aba0 <timer_get_usec>:
    aba0:	e92d4010 	push	{r4, lr}
    aba4:	eb0001a6 	bl	b244 <dev_barrier>
    aba8:	ebfffff7 	bl	ab8c <timer_get_usec_raw>
    abac:	e1a04000 	mov	r4, r0
    abb0:	eb0001a3 	bl	b244 <dev_barrier>
    abb4:	e1a00004 	mov	r0, r4
    abb8:	e8bd8010 	pop	{r4, pc}

0000abbc <delay_us>:
    abbc:	e92d4070 	push	{r4, r5, r6, lr}
    abc0:	e1a05000 	mov	r5, r0
    abc4:	ebfffff5 	bl	aba0 <timer_get_usec>
    abc8:	e1a04000 	mov	r4, r0
    abcc:	ebfffff3 	bl	aba0 <timer_get_usec>
    abd0:	e0400004 	sub	r0, r0, r4
    abd4:	e1500005 	cmp	r0, r5
    abd8:	3afffffb 	bcc	abcc <delay_us+0x10>
    abdc:	e8bd8070 	pop	{r4, r5, r6, pc}

0000abe0 <delay_ms>:
    abe0:	e92d4010 	push	{r4, lr}
    abe4:	e0603280 	rsb	r3, r0, r0, lsl #5
    abe8:	e0800103 	add	r0, r0, r3, lsl #2
    abec:	e1a00180 	lsl	r0, r0, #3
    abf0:	ebfffff1 	bl	abbc <delay_us>
    abf4:	e8bd8010 	pop	{r4, pc}

0000abf8 <delay_sec>:
    abf8:	e92d4010 	push	{r4, lr}
    abfc:	e0603280 	rsb	r3, r0, r0, lsl #5
    ac00:	e0800103 	add	r0, r0, r3, lsl #2
    ac04:	e1a00180 	lsl	r0, r0, #3
    ac08:	ebfffff4 	bl	abe0 <delay_ms>
    ac0c:	e8bd8010 	pop	{r4, pc}

0000ac10 <and_in32>:
    ac10:	e92d4070 	push	{r4, r5, r6, lr}
    ac14:	e1a04000 	mov	r4, r0
    ac18:	e1a05001 	mov	r5, r1
    ac1c:	ebfff502 	bl	802c <GET32>
    ac20:	e0001005 	and	r1, r0, r5
    ac24:	e1a00004 	mov	r0, r4
    ac28:	ebfff4fd 	bl	8024 <PUT32>
    ac2c:	e8bd8070 	pop	{r4, r5, r6, pc}

0000ac30 <or_in32>:
    ac30:	e92d4070 	push	{r4, r5, r6, lr}
    ac34:	e1a04000 	mov	r4, r0
    ac38:	e1a05001 	mov	r5, r1
    ac3c:	ebfff4fa 	bl	802c <GET32>
    ac40:	e1801005 	orr	r1, r0, r5
    ac44:	e1a00004 	mov	r0, r4
    ac48:	ebfff4f5 	bl	8024 <PUT32>
    ac4c:	e8bd8070 	pop	{r4, r5, r6, pc}

0000ac50 <uart_init>:
    ac50:	e92d4010 	push	{r4, lr}
    ac54:	eb00017a 	bl	b244 <dev_barrier>
    ac58:	e3a01002 	mov	r1, #2, 0
    ac5c:	e3a0000e 	mov	r0, #14, 0
    ac60:	eb00017e 	bl	b260 <gpio_set_function>
    ac64:	e3a01002 	mov	r1, #2, 0
    ac68:	e3a0000f 	mov	r0, #15, 0
    ac6c:	eb00017b 	bl	b260 <gpio_set_function>
    ac70:	eb000173 	bl	b244 <dev_barrier>
    ac74:	e3a01001 	mov	r1, #1, 0
    ac78:	e59f0064 	ldr	r0, [pc, #100]	; ace4 <uart_init+0x94>
    ac7c:	ebffffeb 	bl	ac30 <or_in32>
    ac80:	eb00016f 	bl	b244 <dev_barrier>
    ac84:	e59f405c 	ldr	r4, [pc, #92]	; ace8 <uart_init+0x98>
    ac88:	e3a01000 	mov	r1, #0, 0
    ac8c:	e1a00004 	mov	r0, r4
    ac90:	ebfff4e3 	bl	8024 <PUT32>
    ac94:	e3a01000 	mov	r1, #0, 0
    ac98:	e59f004c 	ldr	r0, [pc, #76]	; acec <uart_init+0x9c>
    ac9c:	ebfff4e0 	bl	8024 <PUT32>
    aca0:	e3a01003 	mov	r1, #3, 0
    aca4:	e59f0044 	ldr	r0, [pc, #68]	; acf0 <uart_init+0xa0>
    aca8:	ebfff4dd 	bl	8024 <PUT32>
    acac:	e3a01000 	mov	r1, #0, 0
    acb0:	e59f003c 	ldr	r0, [pc, #60]	; acf4 <uart_init+0xa4>
    acb4:	ebfff4da 	bl	8024 <PUT32>
    acb8:	e3a01006 	mov	r1, #6, 0
    acbc:	e59f0034 	ldr	r0, [pc, #52]	; acf8 <uart_init+0xa8>
    acc0:	ebfff4d7 	bl	8024 <PUT32>
    acc4:	e59f1030 	ldr	r1, [pc, #48]	; acfc <uart_init+0xac>
    acc8:	e59f0030 	ldr	r0, [pc, #48]	; ad00 <uart_init+0xb0>
    accc:	ebfff4d4 	bl	8024 <PUT32>
    acd0:	e3a01003 	mov	r1, #3, 0
    acd4:	e1a00004 	mov	r0, r4
    acd8:	ebfff4d1 	bl	8024 <PUT32>
    acdc:	eb000158 	bl	b244 <dev_barrier>
    ace0:	e8bd8010 	pop	{r4, pc}
    ace4:	20215004 	.word	0x20215004
    ace8:	20215060 	.word	0x20215060
    acec:	20215044 	.word	0x20215044
    acf0:	2021504c 	.word	0x2021504c
    acf4:	20215050 	.word	0x20215050
    acf8:	20215048 	.word	0x20215048
    acfc:	0000010e 	.word	0x0000010e
    ad00:	20215068 	.word	0x20215068

0000ad04 <uart_can_getc>:
    ad04:	e92d4010 	push	{r4, lr}
    ad08:	e59f0008 	ldr	r0, [pc, #8]	; ad18 <uart_can_getc+0x14>
    ad0c:	ebfff4c6 	bl	802c <GET32>
    ad10:	e2000001 	and	r0, r0, #1, 0
    ad14:	e8bd8010 	pop	{r4, pc}
    ad18:	20215064 	.word	0x20215064

0000ad1c <uart_can_putc>:
    ad1c:	e92d4010 	push	{r4, lr}
    ad20:	e59f0010 	ldr	r0, [pc, #16]	; ad38 <uart_can_putc+0x1c>
    ad24:	ebfff4c0 	bl	802c <GET32>
    ad28:	e3100002 	tst	r0, #2, 0
    ad2c:	13a00001 	movne	r0, #1, 0
    ad30:	03a00000 	moveq	r0, #0, 0
    ad34:	e8bd8010 	pop	{r4, pc}
    ad38:	20215064 	.word	0x20215064

0000ad3c <uart_get8>:
    ad3c:	e92d4010 	push	{r4, lr}
    ad40:	eb00013f 	bl	b244 <dev_barrier>
    ad44:	ea000000 	b	ad4c <uart_get8+0x10>
    ad48:	eb000143 	bl	b25c <rpi_wait>
    ad4c:	ebffffec 	bl	ad04 <uart_can_getc>
    ad50:	e3500000 	cmp	r0, #0, 0
    ad54:	0afffffb 	beq	ad48 <uart_get8+0xc>
    ad58:	e59f0010 	ldr	r0, [pc, #16]	; ad70 <uart_get8+0x34>
    ad5c:	ebfff4b2 	bl	802c <GET32>
    ad60:	e6ef4070 	uxtb	r4, r0
    ad64:	eb000136 	bl	b244 <dev_barrier>
    ad68:	e1a00004 	mov	r0, r4
    ad6c:	e8bd8010 	pop	{r4, pc}
    ad70:	20215040 	.word	0x20215040

0000ad74 <uart_put8>:
    ad74:	e92d4010 	push	{r4, lr}
    ad78:	e1a04000 	mov	r4, r0
    ad7c:	eb000130 	bl	b244 <dev_barrier>
    ad80:	ea000000 	b	ad88 <uart_put8+0x14>
    ad84:	eb000134 	bl	b25c <rpi_wait>
    ad88:	ebffffe3 	bl	ad1c <uart_can_putc>
    ad8c:	e3500000 	cmp	r0, #0, 0
    ad90:	0afffffb 	beq	ad84 <uart_put8+0x10>
    ad94:	e1a01004 	mov	r1, r4
    ad98:	e59f000c 	ldr	r0, [pc, #12]	; adac <uart_put8+0x38>
    ad9c:	ebfff4a0 	bl	8024 <PUT32>
    ada0:	eb000127 	bl	b244 <dev_barrier>
    ada4:	e3a00001 	mov	r0, #1, 0
    ada8:	e8bd8010 	pop	{r4, pc}
    adac:	20215040 	.word	0x20215040

0000adb0 <uart_has_data>:
    adb0:	e92d4010 	push	{r4, lr}
    adb4:	eb000122 	bl	b244 <dev_barrier>
    adb8:	ebffffd1 	bl	ad04 <uart_can_getc>
    adbc:	e8bd8010 	pop	{r4, pc}

0000adc0 <uart_tx_is_empty>:
    adc0:	e92d4010 	push	{r4, lr}
    adc4:	eb00011e 	bl	b244 <dev_barrier>
    adc8:	e59f000c 	ldr	r0, [pc, #12]	; addc <uart_tx_is_empty+0x1c>
    adcc:	ebfff496 	bl	802c <GET32>
    add0:	e1a004a0 	lsr	r0, r0, #9
    add4:	e2000001 	and	r0, r0, #1, 0
    add8:	e8bd8010 	pop	{r4, pc}
    addc:	20215064 	.word	0x20215064

0000ade0 <uart_flush_tx>:
    ade0:	e92d4010 	push	{r4, lr}
    ade4:	ebfffff5 	bl	adc0 <uart_tx_is_empty>
    ade8:	e3500000 	cmp	r0, #0, 0
    adec:	0afffffc 	beq	ade4 <uart_flush_tx+0x4>
    adf0:	e8bd8010 	pop	{r4, pc}

0000adf4 <uart_disable>:
    adf4:	e92d4010 	push	{r4, lr}
    adf8:	ebfffff8 	bl	ade0 <uart_flush_tx>
    adfc:	eb000110 	bl	b244 <dev_barrier>
    ae00:	e3e01001 	mvn	r1, #1, 0
    ae04:	e59f0008 	ldr	r0, [pc, #8]	; ae14 <uart_disable+0x20>
    ae08:	ebffff80 	bl	ac10 <and_in32>
    ae0c:	eb00010c 	bl	b244 <dev_barrier>
    ae10:	e8bd8010 	pop	{r4, pc}
    ae14:	20215004 	.word	0x20215004

0000ae18 <using_staff_uart>:
    ae18:	e12fff1e 	bx	lr

0000ae1c <kmalloc_heap_end>:
    ae1c:	e59f3004 	ldr	r3, [pc, #4]	; ae28 <kmalloc_heap_end+0xc>
    ae20:	e5930000 	ldr	r0, [r3]
    ae24:	e12fff1e 	bx	lr
    ae28:	0000c660 	.word	0x0000c660

0000ae2c <kmalloc_heap_start>:
    ae2c:	e59f3004 	ldr	r3, [pc, #4]	; ae38 <kmalloc_heap_start+0xc>
    ae30:	e5930004 	ldr	r0, [r3, #4]
    ae34:	e12fff1e 	bx	lr
    ae38:	0000c660 	.word	0x0000c660

0000ae3c <kmalloc_heap_ptr>:
    ae3c:	e59f3004 	ldr	r3, [pc, #4]	; ae48 <kmalloc_heap_ptr+0xc>
    ae40:	e5930008 	ldr	r0, [r3, #8]
    ae44:	e12fff1e 	bx	lr
    ae48:	0000c660 	.word	0x0000c660

0000ae4c <kmalloc_init_set_start>:
    ae4c:	e52de004 	push	{lr}		; (str lr, [sp, #-4]!)
    ae50:	e24dd00c 	sub	sp, sp, #12, 0
    ae54:	e59f30a8 	ldr	r3, [pc, #168]	; af04 <kmalloc_init_set_start+0xb8>
    ae58:	e5933000 	ldr	r3, [r3]
    ae5c:	e3530000 	cmp	r3, #0, 0
    ae60:	1a00000f 	bne	aea4 <kmalloc_init_set_start+0x58>
    ae64:	e59f3098 	ldr	r3, [pc, #152]	; af04 <kmalloc_init_set_start+0xb8>
    ae68:	e3a02001 	mov	r2, #1, 0
    ae6c:	e5832000 	str	r2, [r3]
    ae70:	e3510000 	cmp	r1, #0, 0
    ae74:	0a000010 	beq	aebc <kmalloc_init_set_start+0x70>
    ae78:	e59f3088 	ldr	r3, [pc, #136]	; af08 <kmalloc_init_set_start+0xbc>
    ae7c:	e5933008 	ldr	r3, [r3, #8]
    ae80:	e1530000 	cmp	r3, r0
    ae84:	8a000014 	bhi	aedc <kmalloc_init_set_start+0x90>
    ae88:	e59f3078 	ldr	r3, [pc, #120]	; af08 <kmalloc_init_set_start+0xbc>
    ae8c:	e5830008 	str	r0, [r3, #8]
    ae90:	e5830004 	str	r0, [r3, #4]
    ae94:	e0800001 	add	r0, r0, r1
    ae98:	e5830000 	str	r0, [r3]
    ae9c:	e28dd00c 	add	sp, sp, #12, 0
    aea0:	e49df004 	pop	{pc}		; (ldr pc, [sp], #4)
    aea4:	e3a03031 	mov	r3, #49, 0	; 0x31
    aea8:	e59f205c 	ldr	r2, [pc, #92]	; af0c <kmalloc_init_set_start+0xc0>
    aeac:	e59f105c 	ldr	r1, [pc, #92]	; af10 <kmalloc_init_set_start+0xc4>
    aeb0:	e59f005c 	ldr	r0, [pc, #92]	; af14 <kmalloc_init_set_start+0xc8>
    aeb4:	ebfffdbb 	bl	a5a8 <printk>
    aeb8:	ebfffe92 	bl	a908 <clean_reboot>
    aebc:	e59f3054 	ldr	r3, [pc, #84]	; af18 <kmalloc_init_set_start+0xcc>
    aec0:	e58d3000 	str	r3, [sp]
    aec4:	e3a03036 	mov	r3, #54, 0	; 0x36
    aec8:	e59f203c 	ldr	r2, [pc, #60]	; af0c <kmalloc_init_set_start+0xc0>
    aecc:	e59f103c 	ldr	r1, [pc, #60]	; af10 <kmalloc_init_set_start+0xc4>
    aed0:	e59f0044 	ldr	r0, [pc, #68]	; af1c <kmalloc_init_set_start+0xd0>
    aed4:	ebfffdb3 	bl	a5a8 <printk>
    aed8:	ebfffe8a 	bl	a908 <clean_reboot>
    aedc:	e59f3024 	ldr	r3, [pc, #36]	; af08 <kmalloc_init_set_start+0xbc>
    aee0:	e5933000 	ldr	r3, [r3]
    aee4:	e58d3004 	str	r3, [sp, #4]
    aee8:	e58d0000 	str	r0, [sp]
    aeec:	e3a0303a 	mov	r3, #58, 0	; 0x3a
    aef0:	e59f2014 	ldr	r2, [pc, #20]	; af0c <kmalloc_init_set_start+0xc0>
    aef4:	e59f1014 	ldr	r1, [pc, #20]	; af10 <kmalloc_init_set_start+0xc4>
    aef8:	e59f0020 	ldr	r0, [pc, #32]	; af20 <kmalloc_init_set_start+0xd4>
    aefc:	ebfffda9 	bl	a5a8 <printk>
    af00:	ebfffe80 	bl	a908 <clean_reboot>
    af04:	0000c690 	.word	0x0000c690
    af08:	0000c660 	.word	0x0000c660
    af0c:	0000c5f8 	.word	0x0000c5f8
    af10:	0000c460 	.word	0x0000c460
    af14:	0000c46c 	.word	0x0000c46c
    af18:	0000c4a0 	.word	0x0000c4a0
    af1c:	0000b39c 	.word	0x0000b39c
    af20:	0000c4ac 	.word	0x0000c4ac

0000af24 <kmalloc_init>:
    af24:	e92d4010 	push	{r4, lr}
    af28:	e59f303c 	ldr	r3, [pc, #60]	; af6c <kmalloc_init+0x48>
    af2c:	e5933004 	ldr	r3, [r3, #4]
    af30:	e3530000 	cmp	r3, #0, 0
    af34:	1a000006 	bne	af54 <kmalloc_init+0x30>
    af38:	e59f302c 	ldr	r3, [pc, #44]	; af6c <kmalloc_init+0x48>
    af3c:	e3a02001 	mov	r2, #1, 0
    af40:	e5832004 	str	r2, [r3, #4]
    af44:	e3a01302 	mov	r1, #134217728	; 0x8000000
    af48:	e3a00601 	mov	r0, #1048576	; 0x100000
    af4c:	ebffffbe 	bl	ae4c <kmalloc_init_set_start>
    af50:	e8bd8010 	pop	{r4, pc}
    af54:	e3a03046 	mov	r3, #70, 0	; 0x46
    af58:	e59f2010 	ldr	r2, [pc, #16]	; af70 <kmalloc_init+0x4c>
    af5c:	e59f1010 	ldr	r1, [pc, #16]	; af74 <kmalloc_init+0x50>
    af60:	e59f0010 	ldr	r0, [pc, #16]	; af78 <kmalloc_init+0x54>
    af64:	ebfffd8f 	bl	a5a8 <printk>
    af68:	ebfffe66 	bl	a908 <clean_reboot>
    af6c:	0000c690 	.word	0x0000c690
    af70:	0000c610 	.word	0x0000c610
    af74:	0000c460 	.word	0x0000c460
    af78:	0000c4f0 	.word	0x0000c4f0

0000af7c <kmalloc_notzero>:
    af7c:	e52de004 	push	{lr}		; (str lr, [sp, #-4]!)
    af80:	e24dd00c 	sub	sp, sp, #12, 0
    af84:	e3500000 	cmp	r0, #0, 0
    af88:	0a00000a 	beq	afb8 <kmalloc_notzero+0x3c>
    af8c:	e2800007 	add	r0, r0, #7, 0
    af90:	e3c03007 	bic	r3, r0, #7, 0
    af94:	e59f2060 	ldr	r2, [pc, #96]	; affc <kmalloc_notzero+0x80>
    af98:	e5920008 	ldr	r0, [r2, #8]
    af9c:	e0801003 	add	r1, r0, r3
    afa0:	e5821008 	str	r1, [r2, #8]
    afa4:	e5922000 	ldr	r2, [r2]
    afa8:	e1510002 	cmp	r1, r2
    afac:	8a000009 	bhi	afd8 <kmalloc_notzero+0x5c>
    afb0:	e28dd00c 	add	sp, sp, #12, 0
    afb4:	e49df004 	pop	{pc}		; (ldr pc, [sp], #4)
    afb8:	e59f3040 	ldr	r3, [pc, #64]	; b000 <kmalloc_notzero+0x84>
    afbc:	e58d3000 	str	r3, [sp]
    afc0:	e3a03051 	mov	r3, #81, 0	; 0x51
    afc4:	e59f2038 	ldr	r2, [pc, #56]	; b004 <kmalloc_notzero+0x88>
    afc8:	e59f1038 	ldr	r1, [pc, #56]	; b008 <kmalloc_notzero+0x8c>
    afcc:	e59f0038 	ldr	r0, [pc, #56]	; b00c <kmalloc_notzero+0x90>
    afd0:	ebfffd74 	bl	a5a8 <printk>
    afd4:	ebfffe4b 	bl	a908 <clean_reboot>
    afd8:	e0411002 	sub	r1, r1, r2
    afdc:	e58d1004 	str	r1, [sp, #4]
    afe0:	e58d3000 	str	r3, [sp]
    afe4:	e3a03057 	mov	r3, #87, 0	; 0x57
    afe8:	e59f2014 	ldr	r2, [pc, #20]	; b004 <kmalloc_notzero+0x88>
    afec:	e59f1014 	ldr	r1, [pc, #20]	; b008 <kmalloc_notzero+0x8c>
    aff0:	e59f0018 	ldr	r0, [pc, #24]	; b010 <kmalloc_notzero+0x94>
    aff4:	ebfffd6b 	bl	a5a8 <printk>
    aff8:	ebfffe42 	bl	a908 <clean_reboot>
    affc:	0000c660 	.word	0x0000c660
    b000:	0000c4a4 	.word	0x0000c4a4
    b004:	0000c620 	.word	0x0000c620
    b008:	0000c460 	.word	0x0000c460
    b00c:	0000b39c 	.word	0x0000b39c
    b010:	0000c520 	.word	0x0000c520

0000b014 <kmalloc>:
    b014:	e92d4030 	push	{r4, r5, lr}
    b018:	e24dd00c 	sub	sp, sp, #12, 0
    b01c:	e2504000 	subs	r4, r0, #0, 0
    b020:	0a000008 	beq	b048 <kmalloc+0x34>
    b024:	e1a00004 	mov	r0, r4
    b028:	ebffffd3 	bl	af7c <kmalloc_notzero>
    b02c:	e1a05000 	mov	r5, r0
    b030:	e1a02004 	mov	r2, r4
    b034:	e3a01000 	mov	r1, #0, 0
    b038:	ebfffd27 	bl	a4dc <memset>
    b03c:	e1a00005 	mov	r0, r5
    b040:	e28dd00c 	add	sp, sp, #12, 0
    b044:	e8bd8030 	pop	{r4, r5, pc}
    b048:	e59f3018 	ldr	r3, [pc, #24]	; b068 <kmalloc+0x54>
    b04c:	e58d3000 	str	r3, [sp]
    b050:	e3a0305e 	mov	r3, #94, 0	; 0x5e
    b054:	e59f2010 	ldr	r2, [pc, #16]	; b06c <kmalloc+0x58>
    b058:	e59f1010 	ldr	r1, [pc, #16]	; b070 <kmalloc+0x5c>
    b05c:	e59f0010 	ldr	r0, [pc, #16]	; b074 <kmalloc+0x60>
    b060:	ebfffd50 	bl	a5a8 <printk>
    b064:	ebfffe27 	bl	a908 <clean_reboot>
    b068:	0000c4a4 	.word	0x0000c4a4
    b06c:	0000c630 	.word	0x0000c630
    b070:	0000c460 	.word	0x0000c460
    b074:	0000b39c 	.word	0x0000b39c

0000b078 <kmalloc_aligned>:
    b078:	e52de004 	push	{lr}		; (str lr, [sp, #-4]!)
    b07c:	e24dd00c 	sub	sp, sp, #12, 0
    b080:	e3500000 	cmp	r0, #0, 0
    b084:	0a000014 	beq	b0dc <kmalloc_aligned+0x64>
    b088:	e2613000 	rsb	r3, r1, #0, 0
    b08c:	e1d13003 	bics	r3, r1, r3
    b090:	1a000019 	bne	b0fc <kmalloc_aligned+0x84>
    b094:	e3510008 	cmp	r1, #8, 0
    b098:	33a01008 	movcc	r1, #8, 0
    b09c:	e59f30c8 	ldr	r3, [pc, #200]	; b16c <kmalloc_aligned+0xf4>
    b0a0:	e5932008 	ldr	r2, [r3, #8]
    b0a4:	e2613000 	rsb	r3, r1, #0, 0
    b0a8:	e1d1c003 	bics	ip, r1, r3
    b0ac:	1a00001c 	bne	b124 <kmalloc_aligned+0xac>
    b0b0:	e0822001 	add	r2, r2, r1
    b0b4:	e2422001 	sub	r2, r2, #1, 0
    b0b8:	e0033002 	and	r3, r3, r2
    b0bc:	e2411001 	sub	r1, r1, #1, 0
    b0c0:	e1110003 	tst	r1, r3
    b0c4:	1a00001e 	bne	b144 <kmalloc_aligned+0xcc>
    b0c8:	e59f209c 	ldr	r2, [pc, #156]	; b16c <kmalloc_aligned+0xf4>
    b0cc:	e5823008 	str	r3, [r2, #8]
    b0d0:	ebffffcf 	bl	b014 <kmalloc>
    b0d4:	e28dd00c 	add	sp, sp, #12, 0
    b0d8:	e49df004 	pop	{pc}		; (ldr pc, [sp], #4)
    b0dc:	e59f308c 	ldr	r3, [pc, #140]	; b170 <kmalloc_aligned+0xf8>
    b0e0:	e58d3000 	str	r3, [sp]
    b0e4:	e3a03069 	mov	r3, #105, 0	; 0x69
    b0e8:	e59f2084 	ldr	r2, [pc, #132]	; b174 <kmalloc_aligned+0xfc>
    b0ec:	e59f1084 	ldr	r1, [pc, #132]	; b178 <kmalloc_aligned+0x100>
    b0f0:	e59f0084 	ldr	r0, [pc, #132]	; b17c <kmalloc_aligned+0x104>
    b0f4:	ebfffd2b 	bl	a5a8 <printk>
    b0f8:	ebfffe02 	bl	a908 <clean_reboot>
    b0fc:	e59f307c 	ldr	r3, [pc, #124]	; b180 <kmalloc_aligned+0x108>
    b100:	e58d3004 	str	r3, [sp, #4]
    b104:	e59f3078 	ldr	r3, [pc, #120]	; b184 <kmalloc_aligned+0x10c>
    b108:	e58d3000 	str	r3, [sp]
    b10c:	e3a0306a 	mov	r3, #106, 0	; 0x6a
    b110:	e59f205c 	ldr	r2, [pc, #92]	; b174 <kmalloc_aligned+0xfc>
    b114:	e59f105c 	ldr	r1, [pc, #92]	; b178 <kmalloc_aligned+0x100>
    b118:	e59f0068 	ldr	r0, [pc, #104]	; b188 <kmalloc_aligned+0x110>
    b11c:	ebfffd21 	bl	a5a8 <printk>
    b120:	ebfffdf8 	bl	a908 <clean_reboot>
    b124:	e59f3060 	ldr	r3, [pc, #96]	; b18c <kmalloc_aligned+0x114>
    b128:	e58d3000 	str	r3, [sp]
    b12c:	e3a03011 	mov	r3, #17, 0
    b130:	e59f2058 	ldr	r2, [pc, #88]	; b190 <kmalloc_aligned+0x118>
    b134:	e59f103c 	ldr	r1, [pc, #60]	; b178 <kmalloc_aligned+0x100>
    b138:	e59f003c 	ldr	r0, [pc, #60]	; b17c <kmalloc_aligned+0x104>
    b13c:	ebfffd19 	bl	a5a8 <printk>
    b140:	ebfffdf0 	bl	a908 <clean_reboot>
    b144:	e59f3048 	ldr	r3, [pc, #72]	; b194 <kmalloc_aligned+0x11c>
    b148:	e58d3004 	str	r3, [sp, #4]
    b14c:	e59f3044 	ldr	r3, [pc, #68]	; b198 <kmalloc_aligned+0x120>
    b150:	e58d3000 	str	r3, [sp]
    b154:	e3a03072 	mov	r3, #114, 0	; 0x72
    b158:	e59f2014 	ldr	r2, [pc, #20]	; b174 <kmalloc_aligned+0xfc>
    b15c:	e59f1014 	ldr	r1, [pc, #20]	; b178 <kmalloc_aligned+0x100>
    b160:	e59f0020 	ldr	r0, [pc, #32]	; b188 <kmalloc_aligned+0x110>
    b164:	ebfffd0f 	bl	a5a8 <printk>
    b168:	ebfffde6 	bl	a908 <clean_reboot>
    b16c:	0000c660 	.word	0x0000c660
    b170:	0000c4a4 	.word	0x0000c4a4
    b174:	0000c638 	.word	0x0000c638
    b178:	0000c460 	.word	0x0000c460
    b17c:	0000b39c 	.word	0x0000b39c
    b180:	0000c568 	.word	0x0000c568
    b184:	0000c580 	.word	0x0000c580
    b188:	0000b900 	.word	0x0000b900
    b18c:	0000c594 	.word	0x0000c594
    b190:	0000c648 	.word	0x0000c648
    b194:	0000c5a0 	.word	0x0000c5a0
    b198:	0000c5ac 	.word	0x0000c5ac

0000b19c <kfree_all>:
    b19c:	e59f3008 	ldr	r3, [pc, #8]	; b1ac <kfree_all+0x10>
    b1a0:	e5932004 	ldr	r2, [r3, #4]
    b1a4:	e5832008 	str	r2, [r3, #8]
    b1a8:	e12fff1e 	bx	lr
    b1ac:	0000c660 	.word	0x0000c660

0000b1b0 <kfree_pop>:
    b1b0:	e59f3048 	ldr	r3, [pc, #72]	; b200 <kfree_pop+0x50>
    b1b4:	e5933004 	ldr	r3, [r3, #4]
    b1b8:	e1530000 	cmp	r3, r0
    b1bc:	8a000006 	bhi	b1dc <kfree_pop+0x2c>
    b1c0:	e59f3038 	ldr	r3, [pc, #56]	; b200 <kfree_pop+0x50>
    b1c4:	e5933000 	ldr	r3, [r3]
    b1c8:	e1530000 	cmp	r3, r0
    b1cc:	3a000002 	bcc	b1dc <kfree_pop+0x2c>
    b1d0:	e59f3028 	ldr	r3, [pc, #40]	; b200 <kfree_pop+0x50>
    b1d4:	e5830008 	str	r0, [r3, #8]
    b1d8:	e12fff1e 	bx	lr
    b1dc:	e52de004 	push	{lr}		; (str lr, [sp, #-4]!)
    b1e0:	e24dd00c 	sub	sp, sp, #12, 0
    b1e4:	e58d0000 	str	r0, [sp]
    b1e8:	e3a03081 	mov	r3, #129, 0	; 0x81
    b1ec:	e59f2010 	ldr	r2, [pc, #16]	; b204 <kfree_pop+0x54>
    b1f0:	e59f1010 	ldr	r1, [pc, #16]	; b208 <kfree_pop+0x58>
    b1f4:	e59f0010 	ldr	r0, [pc, #16]	; b20c <kfree_pop+0x5c>
    b1f8:	ebfffcea 	bl	a5a8 <printk>
    b1fc:	ebfffdc1 	bl	a908 <clean_reboot>
    b200:	0000c660 	.word	0x0000c660
    b204:	0000c650 	.word	0x0000c650
    b208:	0000c460 	.word	0x0000c460
    b20c:	0000c5c8 	.word	0x0000c5c8

0000b210 <putk>:
    b210:	e92d4010 	push	{r4, lr}
    b214:	e1a04000 	mov	r4, r0
    b218:	e5d40000 	ldrb	r0, [r4]
    b21c:	e3500000 	cmp	r0, #0, 0
    b220:	0a000004 	beq	b238 <putk+0x28>
    b224:	e59f3014 	ldr	r3, [pc, #20]	; b240 <putk+0x30>
    b228:	e5933000 	ldr	r3, [r3]
    b22c:	e12fff33 	blx	r3
    b230:	e2844001 	add	r4, r4, #1, 0
    b234:	eafffff7 	b	b218 <putk+0x8>
    b238:	e3a00001 	mov	r0, #1, 0
    b23c:	e8bd8010 	pop	{r4, pc}
    b240:	0000c65c 	.word	0x0000c65c

0000b244 <dev_barrier>:
    b244:	ea000002 	b	b254 <dsb>

0000b248 <dmb>:
    b248:	e3a00000 	mov	r0, #0, 0
    b24c:	ee070fba 	mcr	15, 0, r0, cr7, cr10, {5}
    b250:	e12fff1e 	bx	lr

0000b254 <dsb>:
    b254:	ee070f9a 	mcr	15, 0, r0, cr7, cr10, {4}
    b258:	e12fff1e 	bx	lr

0000b25c <rpi_wait>:
    b25c:	e12fff1e 	bx	lr

0000b260 <gpio_set_function>:
    b260:	e350001f 	cmp	r0, #31, 0
    b264:	812fff1e 	bxhi	lr
    b268:	e92d4070 	push	{r4, r5, r6, lr}
    b26c:	e1a05001 	mov	r5, r1
    b270:	e3d13007 	bics	r3, r1, #7, 0
    b274:	18bd8070 	popne	{r4, r5, r6, pc}
    b278:	e59f3040 	ldr	r3, [pc, #64]	; b2c0 <gpio_set_function+0x60>
    b27c:	e0832093 	umull	r2, r3, r3, r0
    b280:	e1a031a3 	lsr	r3, r3, #3
    b284:	e1a02003 	mov	r2, r3
    b288:	e0833103 	add	r3, r3, r3, lsl #2
    b28c:	e0403083 	sub	r3, r0, r3, lsl #1
    b290:	e0834083 	add	r4, r3, r3, lsl #1
    b294:	e2820302 	add	r0, r2, #134217728	; 0x8000000
    b298:	e2800702 	add	r0, r0, #524288	; 0x80000
    b29c:	e1a06100 	lsl	r6, r0, #2
    b2a0:	e1a00006 	mov	r0, r6
    b2a4:	ebfff360 	bl	802c <GET32>
    b2a8:	e3a01007 	mov	r1, #7, 0
    b2ac:	e1c01411 	bic	r1, r0, r1, lsl r4
    b2b0:	e1811415 	orr	r1, r1, r5, lsl r4
    b2b4:	e1a00006 	mov	r0, r6
    b2b8:	ebfff359 	bl	8024 <PUT32>
    b2bc:	e8bd8070 	pop	{r4, r5, r6, pc}
    b2c0:	cccccccd 	.word	0xcccccccd

0000b2c4 <gpio_set_output>:
    b2c4:	e92d4010 	push	{r4, lr}
    b2c8:	e3a01001 	mov	r1, #1, 0
    b2cc:	ebffffe3 	bl	b260 <gpio_set_function>
    b2d0:	e8bd8010 	pop	{r4, pc}

0000b2d4 <gpio_set_on>:
    b2d4:	e350001f 	cmp	r0, #31, 0
    b2d8:	812fff1e 	bxhi	lr
    b2dc:	e92d4010 	push	{r4, lr}
    b2e0:	e3a01001 	mov	r1, #1, 0
    b2e4:	e1a01011 	lsl	r1, r1, r0
    b2e8:	e59f0004 	ldr	r0, [pc, #4]	; b2f4 <gpio_set_on+0x20>
    b2ec:	ebfff34c 	bl	8024 <PUT32>
    b2f0:	e8bd8010 	pop	{r4, pc}
    b2f4:	2020001c 	.word	0x2020001c

0000b2f8 <gpio_set_off>:
    b2f8:	e350001f 	cmp	r0, #31, 0
    b2fc:	812fff1e 	bxhi	lr
    b300:	e92d4010 	push	{r4, lr}
    b304:	e3a01001 	mov	r1, #1, 0
    b308:	e1a01011 	lsl	r1, r1, r0
    b30c:	e59f0004 	ldr	r0, [pc, #4]	; b318 <gpio_set_off+0x20>
    b310:	ebfff343 	bl	8024 <PUT32>
    b314:	e8bd8010 	pop	{r4, pc}
    b318:	20200028 	.word	0x20200028

0000b31c <gpio_set_input>:
    b31c:	e92d4010 	push	{r4, lr}
    b320:	e3a01000 	mov	r1, #0, 0
    b324:	ebffffcd 	bl	b260 <gpio_set_function>
    b328:	e8bd8010 	pop	{r4, pc}

0000b32c <gpio_write>:
    b32c:	e92d4010 	push	{r4, lr}
    b330:	e3510000 	cmp	r1, #0, 0
    b334:	0a000001 	beq	b340 <gpio_write+0x14>
    b338:	ebffffe5 	bl	b2d4 <gpio_set_on>
    b33c:	e8bd8010 	pop	{r4, pc}
    b340:	ebffffec 	bl	b2f8 <gpio_set_off>
    b344:	e8bd8010 	pop	{r4, pc}

0000b348 <gpio_read>:
    b348:	e350001f 	cmp	r0, #31, 0
    b34c:	8a000007 	bhi	b370 <gpio_read+0x28>
    b350:	e92d4010 	push	{r4, lr}
    b354:	e200401f 	and	r4, r0, #31, 0
    b358:	e59f3018 	ldr	r3, [pc, #24]	; b378 <gpio_read+0x30>
    b35c:	e08302a0 	add	r0, r3, r0, lsr #5
    b360:	ebfff331 	bl	802c <GET32>
    b364:	e1a00430 	lsr	r0, r0, r4
    b368:	e2000001 	and	r0, r0, #1, 0
    b36c:	e8bd8010 	pop	{r4, pc}
    b370:	e3e00000 	mvn	r0, #0, 0
    b374:	e12fff1e 	bx	lr
    b378:	20200034 	.word	0x20200034

0000b37c <__code_end__>:
    b37c:	00000000 	.word	0x00000000
